
out.elf:     file format elf32-tradlittlemips


Disassembly of section .reset:

bd001970 <_reset>:
bd001970:	0f40065e 	jal	bd001978 <_startup>
bd001974:	00000000 	nop

bd001978 <_startup>:
bd001978:	401a6000 	mfc0	k0,c0_status
bd00197c:	7f5a04c0 	ext	k0,k0,0x13,0x1
bd001980:	13400005 	beqz	k0,bd001998 <_no_nmi>
bd001984:	00000000 	nop
bd001988:	3c1a9d01 	lui	k0,0x9d01
bd00198c:	275a9e44 	addiu	k0,k0,-25020
bd001990:	03400008 	jr	k0
bd001994:	00000000 	nop

bd001998 <_no_nmi>:
bd001998:	3c1da002 	lui	sp,0xa002
bd00199c:	27bdfff0 	addiu	sp,sp,-16
bd0019a0:	3c1ca001 	lui	gp,0xa001
bd0019a4:	279c8020 	addiu	gp,gp,-32736
bd0019a8:	40096002 	mfc0	t1,c0_srsctl
bd0019ac:	01205820 	add	t3,t1,zero
bd0019b0:	7d2a1e80 	ext	t2,t1,0x1a,0x4
bd0019b4:	7d494984 	ins	t1,t2,0x6,0x4
bd0019b8:	40896002 	mtc0	t1,c0_srsctl
bd0019bc:	000000c0 	ehb
bd0019c0:	41dce000 	wrpgpr	gp,gp
bd0019c4:	408b6002 	mtc0	t3,c0_srsctl
bd0019c8:	000000c0 	ehb
bd0019cc:	3c089d01 	lui	t0,0x9d01
bd0019d0:	25089fb8 	addiu	t0,t0,-24648
bd0019d4:	0100f809 	jalr	t0
bd0019d8:	00000000 	nop
bd0019dc:	3c08a000 	lui	t0,0xa000
bd0019e0:	25080040 	addiu	t0,t0,64
bd0019e4:	3c09a000 	lui	t1,0xa000
bd0019e8:	25297da4 	addiu	t1,t1,32164
bd0019ec:	10000006 	b	bd001a08 <_bss_check>
bd0019f0:	00000000 	nop

bd0019f4 <_bss_init>:
bd0019f4:	ad000000 	sw	zero,0(t0)
bd0019f8:	ad000004 	sw	zero,4(t0)
bd0019fc:	ad000008 	sw	zero,8(t0)
bd001a00:	ad00000c 	sw	zero,12(t0)
bd001a04:	25080010 	addiu	t0,t0,16

bd001a08 <_bss_check>:
bd001a08:	0109082b 	sltu	at,t0,t1
bd001a0c:	1420fff9 	bnez	at,bd0019f4 <_bss_init>
bd001a10:	00000000 	nop

bd001a14 <_dinit_init>:
bd001a14:	3c089d00 	lui	t0,0x9d00
bd001a18:	25087d18 	addiu	t0,t0,32024
bd001a1c:	8d090000 	lw	t1,0(t0)
bd001a20:	11200018 	beqz	t1,bd001a84 <_dinit_end+0x18>
bd001a24:	25080004 	addiu	t0,t0,4
bd001a28:	8d0a0000 	lw	t2,0(t0)
bd001a2c:	25080004 	addiu	t0,t0,4
bd001a30:	8d0b0000 	lw	t3,0(t0)
bd001a34:	11600009 	beqz	t3,bd001a5c <_dinit_clear>
bd001a38:	25080004 	addiu	t0,t0,4

bd001a3c <_dinit_copy>:
bd001a3c:	910c0000 	lbu	t4,0(t0)
bd001a40:	254affff 	addiu	t2,t2,-1
bd001a44:	25080001 	addiu	t0,t0,1
bd001a48:	a12c0000 	sb	t4,0(t1)
bd001a4c:	1540fffb 	bnez	t2,bd001a3c <_dinit_copy>
bd001a50:	25290001 	addiu	t1,t1,1
bd001a54:	10000005 	b	bd001a6c <_dinit_end>
bd001a58:	00000000 	nop

bd001a5c <_dinit_clear>:
bd001a5c:	a1200000 	sb	zero,0(t1)
bd001a60:	254affff 	addiu	t2,t2,-1
bd001a64:	1540fffd 	bnez	t2,bd001a5c <_dinit_clear>
bd001a68:	25290001 	addiu	t1,t1,1

bd001a6c <_dinit_end>:
bd001a6c:	25080003 	addiu	t0,t0,3
bd001a70:	240afffc 	li	t2,-4
bd001a74:	01484024 	and	t0,t2,t0
bd001a78:	8d090000 	lw	t1,0(t0)
bd001a7c:	1520ffe7 	bnez	t1,bd001a1c <_dinit_init+0x8>
bd001a80:	00000000 	nop
bd001a84:	3c090000 	lui	t1,0x0
bd001a88:	25290000 	addiu	t1,t1,0
bd001a8c:	11200010 	beqz	t1,bd001ad0 <_ramfunc_done>
bd001a90:	00000000 	nop
bd001a94:	3c090002 	lui	t1,0x2
bd001a98:	25290000 	addiu	t1,t1,0
bd001a9c:	3c0abf88 	lui	t2,0xbf88
bd001aa0:	254a2010 	addiu	t2,t2,8208
bd001aa4:	ad490000 	sw	t1,0(t2)
bd001aa8:	3c090002 	lui	t1,0x2
bd001aac:	25290000 	addiu	t1,t1,0
bd001ab0:	3c0abf88 	lui	t2,0xbf88
bd001ab4:	254a2020 	addiu	t2,t2,8224
bd001ab8:	ad490000 	sw	t1,0(t2)
bd001abc:	3c090002 	lui	t1,0x2
bd001ac0:	25290000 	addiu	t1,t1,0
bd001ac4:	3c0abf88 	lui	t2,0xbf88
bd001ac8:	254a2030 	addiu	t2,t2,8240
bd001acc:	ad490000 	sw	t1,0(t2)

bd001ad0 <_ramfunc_done>:
bd001ad0:	40804800 	mtc0	zero,c0_count
bd001ad4:	240affff 	li	t2,-1
bd001ad8:	408a5800 	mtc0	t2,c0_compare
bd001adc:	3c099d00 	lui	t1,0x9d00
bd001ae0:	25290000 	addiu	t1,t1,0
bd001ae4:	40897801 	mtc0	t1,c0_ebase
bd001ae8:	3c090000 	lui	t1,0x0
bd001aec:	25290001 	addiu	t1,t1,1
bd001af0:	240a0000 	li	t2,0
bd001af4:	7d2a4944 	ins	t2,t1,0x5,0x5
bd001af8:	408a6001 	mtc0	t2,c0_intctl
bd001afc:	3c090080 	lui	t1,0x80
bd001b00:	40896800 	mtc0	t1,c0_cause
bd001b04:	40088000 	mfc0	t0,c0_config
bd001b08:	7d090580 	ext	t1,t0,0x16,0x1
bd001b0c:	00094c40 	sll	t1,t1,0x11
bd001b10:	40086000 	mfc0	t0,c0_status
bd001b14:	3c010058 	lui	at,0x58
bd001b18:	01014024 	and	t0,t0,at
bd001b1c:	01284025 	or	t0,t1,t0
bd001b20:	40886000 	mtc0	t0,c0_status
bd001b24:	3c089d01 	lui	t0,0x9d01
bd001b28:	25089fc0 	addiu	t0,t0,-24640
bd001b2c:	0100f809 	jalr	t0
bd001b30:	00000000 	nop
bd001b34:	40086000 	mfc0	t0,c0_status
bd001b38:	3c01ffbf 	lui	at,0xffbf
bd001b3c:	3421ffff 	ori	at,at,0xffff
bd001b40:	01014024 	and	t0,t0,at
bd001b44:	40886000 	mtc0	t0,c0_status
bd001b48:	30840000 	andi	a0,a0,0x0
bd001b4c:	30a50000 	andi	a1,a1,0x0
bd001b50:	3c089d01 	lui	t0,0x9d01
bd001b54:	25089a98 	addiu	t0,t0,-25960
bd001b58:	01000008 	jr	t0
bd001b5c:	00000000 	nop

Disassembly of section .bev_excpt:

bd001cf0 <_bev_exception>:
bd001cf0:	3c1a9d01 	lui	k0,0x9d01
bd001cf4:	275a9b30 	addiu	k0,k0,-25808
bd001cf8:	03400008 	jr	k0
bd001cfc:	00000000 	nop

Disassembly of section .app_excpt:

9d000180 <_gen_exception>:
9d000180:	3c1a9d01 	lui	k0,0x9d01
9d000184:	275a8ff0 	addiu	k0,k0,-28688
9d000188:	03400008 	jr	k0
9d00018c:	00000000 	nop

Disassembly of section .vector_0:

9d000200 <__vector_dispatch_0>:
9d000200:	0b402735 	j	9d009cd4 <_DefaultInterrupt>
9d000204:	00000000 	nop

Disassembly of section .vector_1:

9d000220 <__vector_dispatch_1>:
9d000220:	0b402735 	j	9d009cd4 <_DefaultInterrupt>
9d000224:	00000000 	nop

Disassembly of section .vector_2:

9d000240 <__vector_dispatch_2>:
9d000240:	0b402735 	j	9d009cd4 <_DefaultInterrupt>
9d000244:	00000000 	nop

Disassembly of section .vector_3:

9d000260 <__vector_dispatch_3>:
9d000260:	0b402735 	j	9d009cd4 <_DefaultInterrupt>
9d000264:	00000000 	nop

Disassembly of section .vector_4:

9d000280 <__vector_dispatch_4>:
9d000280:	0b402735 	j	9d009cd4 <_DefaultInterrupt>
9d000284:	00000000 	nop

Disassembly of section .vector_5:

9d0002a0 <__vector_dispatch_5>:
9d0002a0:	0b402735 	j	9d009cd4 <_DefaultInterrupt>
9d0002a4:	00000000 	nop

Disassembly of section .vector_6:

9d0002c0 <__vector_dispatch_6>:
9d0002c0:	0b402735 	j	9d009cd4 <_DefaultInterrupt>
9d0002c4:	00000000 	nop

Disassembly of section .vector_7:

9d0002e0 <__vector_dispatch_7>:
9d0002e0:	0b402735 	j	9d009cd4 <_DefaultInterrupt>
9d0002e4:	00000000 	nop

Disassembly of section .vector_8:

9d000300 <__vector_dispatch_8>:
9d000300:	0b4011b3 	j	9d0046cc <Current_Controller>
9d000304:	00000000 	nop

Disassembly of section .vector_9:

9d000320 <__vector_dispatch_9>:
9d000320:	0b402735 	j	9d009cd4 <_DefaultInterrupt>
9d000324:	00000000 	nop

Disassembly of section .vector_10:

9d000340 <__vector_dispatch_10>:
9d000340:	0b402735 	j	9d009cd4 <_DefaultInterrupt>
9d000344:	00000000 	nop

Disassembly of section .vector_11:

9d000360 <__vector_dispatch_11>:
9d000360:	0b402735 	j	9d009cd4 <_DefaultInterrupt>
9d000364:	00000000 	nop

Disassembly of section .vector_12:

9d000380 <__vector_dispatch_12>:
9d000380:	0b402735 	j	9d009cd4 <_DefaultInterrupt>
9d000384:	00000000 	nop

Disassembly of section .vector_13:

9d0003a0 <__vector_dispatch_13>:
9d0003a0:	0b402735 	j	9d009cd4 <_DefaultInterrupt>
9d0003a4:	00000000 	nop

Disassembly of section .vector_14:

9d0003c0 <__vector_dispatch_14>:
9d0003c0:	0b402735 	j	9d009cd4 <_DefaultInterrupt>
9d0003c4:	00000000 	nop

Disassembly of section .vector_15:

9d0003e0 <__vector_dispatch_15>:
9d0003e0:	0b402735 	j	9d009cd4 <_DefaultInterrupt>
9d0003e4:	00000000 	nop

Disassembly of section .vector_16:

9d000400 <__vector_dispatch_16>:
9d000400:	0b40139a 	j	9d004e68 <Position_Controller>
9d000404:	00000000 	nop

Disassembly of section .vector_17:

9d000420 <__vector_dispatch_17>:
9d000420:	0b402735 	j	9d009cd4 <_DefaultInterrupt>
9d000424:	00000000 	nop

Disassembly of section .vector_18:

9d000440 <__vector_dispatch_18>:
9d000440:	0b402735 	j	9d009cd4 <_DefaultInterrupt>
9d000444:	00000000 	nop

Disassembly of section .vector_19:

9d000460 <__vector_dispatch_19>:
9d000460:	0b402735 	j	9d009cd4 <_DefaultInterrupt>
9d000464:	00000000 	nop

Disassembly of section .vector_20:

9d000480 <__vector_dispatch_20>:
9d000480:	0b402735 	j	9d009cd4 <_DefaultInterrupt>
9d000484:	00000000 	nop

Disassembly of section .vector_21:

9d0004a0 <__vector_dispatch_21>:
9d0004a0:	0b402735 	j	9d009cd4 <_DefaultInterrupt>
9d0004a4:	00000000 	nop

Disassembly of section .vector_22:

9d0004c0 <__vector_dispatch_22>:
9d0004c0:	0b402735 	j	9d009cd4 <_DefaultInterrupt>
9d0004c4:	00000000 	nop

Disassembly of section .vector_23:

9d0004e0 <__vector_dispatch_23>:
9d0004e0:	0b402735 	j	9d009cd4 <_DefaultInterrupt>
9d0004e4:	00000000 	nop

Disassembly of section .vector_24:

9d000500 <__vector_dispatch_24>:
9d000500:	0b402735 	j	9d009cd4 <_DefaultInterrupt>
9d000504:	00000000 	nop

Disassembly of section .vector_25:

9d000520 <__vector_dispatch_25>:
9d000520:	0b402735 	j	9d009cd4 <_DefaultInterrupt>
9d000524:	00000000 	nop

Disassembly of section .vector_26:

9d000540 <__vector_dispatch_26>:
9d000540:	0b402735 	j	9d009cd4 <_DefaultInterrupt>
9d000544:	00000000 	nop

Disassembly of section .vector_27:

9d000560 <__vector_dispatch_27>:
9d000560:	0b402735 	j	9d009cd4 <_DefaultInterrupt>
9d000564:	00000000 	nop

Disassembly of section .vector_28:

9d000580 <__vector_dispatch_28>:
9d000580:	0b402735 	j	9d009cd4 <_DefaultInterrupt>
9d000584:	00000000 	nop

Disassembly of section .vector_29:

9d0005a0 <__vector_dispatch_29>:
9d0005a0:	0b402735 	j	9d009cd4 <_DefaultInterrupt>
9d0005a4:	00000000 	nop

Disassembly of section .vector_30:

9d0005c0 <__vector_dispatch_30>:
9d0005c0:	0b402735 	j	9d009cd4 <_DefaultInterrupt>
9d0005c4:	00000000 	nop

Disassembly of section .vector_31:

9d0005e0 <__vector_dispatch_31>:
9d0005e0:	0b402735 	j	9d009cd4 <_DefaultInterrupt>
9d0005e4:	00000000 	nop

Disassembly of section .vector_32:

9d000600 <__vector_dispatch_32>:
9d000600:	0b402735 	j	9d009cd4 <_DefaultInterrupt>
9d000604:	00000000 	nop

Disassembly of section .vector_33:

9d000620 <__vector_dispatch_33>:
9d000620:	0b402735 	j	9d009cd4 <_DefaultInterrupt>
9d000624:	00000000 	nop

Disassembly of section .vector_34:

9d000640 <__vector_dispatch_34>:
9d000640:	0b402735 	j	9d009cd4 <_DefaultInterrupt>
9d000644:	00000000 	nop

Disassembly of section .vector_35:

9d000660 <__vector_dispatch_35>:
9d000660:	0b402735 	j	9d009cd4 <_DefaultInterrupt>
9d000664:	00000000 	nop

Disassembly of section .vector_36:

9d000680 <__vector_dispatch_36>:
9d000680:	0b402735 	j	9d009cd4 <_DefaultInterrupt>
9d000684:	00000000 	nop

Disassembly of section .vector_37:

9d0006a0 <__vector_dispatch_37>:
9d0006a0:	0b402735 	j	9d009cd4 <_DefaultInterrupt>
9d0006a4:	00000000 	nop

Disassembly of section .vector_38:

9d0006c0 <__vector_dispatch_38>:
9d0006c0:	0b402735 	j	9d009cd4 <_DefaultInterrupt>
9d0006c4:	00000000 	nop

Disassembly of section .vector_39:

9d0006e0 <__vector_dispatch_39>:
9d0006e0:	0b402735 	j	9d009cd4 <_DefaultInterrupt>
9d0006e4:	00000000 	nop

Disassembly of section .vector_40:

9d000700 <__vector_dispatch_40>:
9d000700:	0b402735 	j	9d009cd4 <_DefaultInterrupt>
9d000704:	00000000 	nop

Disassembly of section .vector_41:

9d000720 <__vector_dispatch_41>:
9d000720:	0b402735 	j	9d009cd4 <_DefaultInterrupt>
9d000724:	00000000 	nop

Disassembly of section .vector_42:

9d000740 <__vector_dispatch_42>:
9d000740:	0b402735 	j	9d009cd4 <_DefaultInterrupt>
9d000744:	00000000 	nop

Disassembly of section .vector_43:

9d000760 <__vector_dispatch_43>:
9d000760:	0b402735 	j	9d009cd4 <_DefaultInterrupt>
9d000764:	00000000 	nop

Disassembly of section .vector_44:

9d000780 <__vector_dispatch_44>:
9d000780:	0b402735 	j	9d009cd4 <_DefaultInterrupt>
9d000784:	00000000 	nop

Disassembly of section .vector_45:

9d0007a0 <__vector_dispatch_45>:
9d0007a0:	0b402735 	j	9d009cd4 <_DefaultInterrupt>
9d0007a4:	00000000 	nop

Disassembly of section .vector_46:

9d0007c0 <__vector_dispatch_46>:
9d0007c0:	0b402735 	j	9d009cd4 <_DefaultInterrupt>
9d0007c4:	00000000 	nop

Disassembly of section .vector_47:

9d0007e0 <__vector_dispatch_47>:
9d0007e0:	0b402735 	j	9d009cd4 <_DefaultInterrupt>
9d0007e4:	00000000 	nop

Disassembly of section .vector_48:

9d000800 <__vector_dispatch_48>:
9d000800:	0b402735 	j	9d009cd4 <_DefaultInterrupt>
9d000804:	00000000 	nop

Disassembly of section .vector_49:

9d000820 <__vector_dispatch_49>:
9d000820:	0b402735 	j	9d009cd4 <_DefaultInterrupt>
9d000824:	00000000 	nop

Disassembly of section .vector_50:

9d000840 <__vector_dispatch_50>:
9d000840:	0b402735 	j	9d009cd4 <_DefaultInterrupt>
9d000844:	00000000 	nop

Disassembly of section .vector_51:

9d000860 <__vector_dispatch_51>:
9d000860:	0b402735 	j	9d009cd4 <_DefaultInterrupt>
9d000864:	00000000 	nop

Disassembly of section ._debug_exception:

bfc00480 <__DbgExecReturn>:
bfc00480:	409bf800 	mtc0	k1,c0_desave
bfc00484:	000000c0 	ehb
bfc00488:	3c1b9d01 	lui	k1,0x9d01
bfc0048c:	277b9c08 	addiu	k1,k1,-25592
bfc00490:	13600002 	beqz	k1,bfc0049c <__DbgExecReturn+0x1c>
bfc00494:	00000000 	nop
bfc00498:	409bc000 	mtc0	k1,c0_depc
bfc0049c:	401bf800 	mfc0	k1,c0_desave
bfc004a0:	000000c0 	ehb
bfc004a4:	4200001f 	deret
bfc004a8:	00000000 	nop

Disassembly of section .text._vfprintf_cdfFnopuxX:

9d001e00 <_vfprintf_cdfFnopuxX>:
9d001e00:	27bdff98 	addiu	sp,sp,-104
9d001e04:	00001021 	move	v0,zero
9d001e08:	afb20048 	sw	s2,72(sp)
9d001e0c:	afb10044 	sw	s1,68(sp)
9d001e10:	afb00040 	sw	s0,64(sp)
9d001e14:	afbf0064 	sw	ra,100(sp)
9d001e18:	afbe0060 	sw	s8,96(sp)
9d001e1c:	afb7005c 	sw	s7,92(sp)
9d001e20:	afb60058 	sw	s6,88(sp)
9d001e24:	afb50054 	sw	s5,84(sp)
9d001e28:	afb40050 	sw	s4,80(sp)
9d001e2c:	afb3004c 	sw	s3,76(sp)
9d001e30:	00809021 	move	s2,a0
9d001e34:	00a08821 	move	s1,a1
9d001e38:	afa60070 	sw	a2,112(sp)
9d001e3c:	afa20030 	sw	v0,48(sp)
9d001e40:	00008021 	move	s0,zero
9d001e44:	82240000 	lb	a0,0(s1)
9d001e48:	1080006c 	beqz	a0,9d001ffc <_vfprintf_cdfFnopuxX+0x1fc>
9d001e4c:	a3a40010 	sb	a0,16(sp)
9d001e50:	24020025 	li	v0,37
9d001e54:	14820219 	bne	a0,v0,9d0026bc <_vfprintf_cdfFnopuxX+0x8bc>
9d001e58:	26330001 	addiu	s3,s1,1
9d001e5c:	26240002 	addiu	a0,s1,2
9d001e60:	8082ffff 	lb	v0,-1(a0)
9d001e64:	2406002d 	li	a2,45
9d001e68:	00001821 	move	v1,zero
9d001e6c:	24080030 	li	t0,48
9d001e70:	24070020 	li	a3,32
9d001e74:	2409002b 	li	t1,43
9d001e78:	1046020d 	beq	v0,a2,9d0026b0 <_vfprintf_cdfFnopuxX+0x8b0>
9d001e7c:	2491ffff 	addiu	s1,a0,-1
9d001e80:	2845002e 	slti	a1,v0,46
9d001e84:	10a00203 	beqz	a1,9d002694 <_vfprintf_cdfFnopuxX+0x894>
9d001e88:	00000000 	nop
9d001e8c:	50470214 	beql	v0,a3,9d0026e0 <_vfprintf_cdfFnopuxX+0x8e0>
9d001e90:	34630001 	ori	v1,v1,0x1
9d001e94:	50490210 	beql	v0,t1,9d0026d8 <_vfprintf_cdfFnopuxX+0x8d8>
9d001e98:	34630002 	ori	v1,v1,0x2
9d001e9c:	30640002 	andi	a0,v1,0x2
9d001ea0:	54800001 	bnezl	a0,9d001ea8 <_vfprintf_cdfFnopuxX+0xa8>
9d001ea4:	3063fffe 	andi	v1,v1,0xfffe
9d001ea8:	30640008 	andi	a0,v1,0x8
9d001eac:	54800001 	bnezl	a0,9d001eb4 <_vfprintf_cdfFnopuxX+0xb4>
9d001eb0:	3063fffb 	andi	v1,v1,0xfffb
9d001eb4:	3c059d01 	lui	a1,0x9d01
9d001eb8:	24a58b24 	addiu	a1,a1,-29916
9d001ebc:	00a22021 	addu	a0,a1,v0
9d001ec0:	90840001 	lbu	a0,1(a0)
9d001ec4:	30840004 	andi	a0,a0,0x4
9d001ec8:	10800207 	beqz	a0,9d0026e8 <_vfprintf_cdfFnopuxX+0x8e8>
9d001ecc:	2404002a 	li	a0,42
9d001ed0:	0000a021 	move	s4,zero
9d001ed4:	00142040 	sll	a0,s4,0x1
9d001ed8:	0014a0c0 	sll	s4,s4,0x3
9d001edc:	0094a021 	addu	s4,a0,s4
9d001ee0:	26310001 	addiu	s1,s1,1
9d001ee4:	0282a021 	addu	s4,s4,v0
9d001ee8:	3c079d01 	lui	a3,0x9d01
9d001eec:	82220000 	lb	v0,0(s1)
9d001ef0:	24e78b24 	addiu	a3,a3,-29916
9d001ef4:	00e22021 	addu	a0,a3,v0
9d001ef8:	90840001 	lbu	a0,1(a0)
9d001efc:	30840004 	andi	a0,a0,0x4
9d001f00:	1480fff4 	bnez	a0,9d001ed4 <_vfprintf_cdfFnopuxX+0xd4>
9d001f04:	2694ffd0 	addiu	s4,s4,-48
9d001f08:	2404002e 	li	a0,46
9d001f0c:	504401fb 	beql	v0,a0,9d0026fc <_vfprintf_cdfFnopuxX+0x8fc>
9d001f10:	26310001 	addiu	s1,s1,1
9d001f14:	34631000 	ori	v1,v1,0x1000
9d001f18:	00009821 	move	s3,zero
9d001f1c:	304400ff 	andi	a0,v0,0xff
9d001f20:	2c850079 	sltiu	a1,a0,121
9d001f24:	a3a20010 	sb	v0,16(sp)
9d001f28:	14a00041 	bnez	a1,9d002030 <_vfprintf_cdfFnopuxX+0x230>
9d001f2c:	26310001 	addiu	s1,s1,1
9d001f30:	27b50010 	addiu	s5,sp,16
9d001f34:	24160001 	li	s6,1
9d001f38:	12600004 	beqz	s3,9d001f4c <_vfprintf_cdfFnopuxX+0x14c>
9d001f3c:	02d4102b 	sltu	v0,s6,s4
9d001f40:	0276102b 	sltu	v0,s3,s6
9d001f44:	0262b00b 	movn	s6,s3,v0
9d001f48:	02d4102b 	sltu	v0,s6,s4
9d001f4c:	50400002 	beqzl	v0,9d001f58 <_vfprintf_cdfFnopuxX+0x158>
9d001f50:	0000a021 	move	s4,zero
9d001f54:	0296a023 	subu	s4,s4,s6
9d001f58:	30770008 	andi	s7,v1,0x8
9d001f5c:	16e0000c 	bnez	s7,9d001f90 <_vfprintf_cdfFnopuxX+0x190>
9d001f60:	2413ffff 	li	s3,-1
9d001f64:	2694ffff 	addiu	s4,s4,-1
9d001f68:	52930009 	beql	s4,s3,9d001f90 <_vfprintf_cdfFnopuxX+0x190>
9d001f6c:	2413ffff 	li	s3,-1
9d001f70:	24040020 	li	a0,32
9d001f74:	0f40214f 	jal	9d00853c <.LFE0>
9d001f78:	02402821 	move	a1,s2
9d001f7c:	1053fffa 	beq	v0,s3,9d001f68 <_vfprintf_cdfFnopuxX+0x168>
9d001f80:	2694ffff 	addiu	s4,s4,-1
9d001f84:	1693fffa 	bne	s4,s3,9d001f70 <_vfprintf_cdfFnopuxX+0x170>
9d001f88:	26100001 	addiu	s0,s0,1
9d001f8c:	2413ffff 	li	s3,-1
9d001f90:	26d6ffff 	addiu	s6,s6,-1
9d001f94:	12d30009 	beq	s6,s3,9d001fbc <_vfprintf_cdfFnopuxX+0x1bc>
9d001f98:	00000000 	nop
9d001f9c:	82a40000 	lb	a0,0(s5)
9d001fa0:	02402821 	move	a1,s2
9d001fa4:	0f40214f 	jal	9d00853c <.LFE0>
9d001fa8:	26b50001 	addiu	s5,s5,1
9d001fac:	1053fff9 	beq	v0,s3,9d001f94 <_vfprintf_cdfFnopuxX+0x194>
9d001fb0:	26d6ffff 	addiu	s6,s6,-1
9d001fb4:	16d3fff9 	bne	s6,s3,9d001f9c <_vfprintf_cdfFnopuxX+0x19c>
9d001fb8:	26100001 	addiu	s0,s0,1
9d001fbc:	52e0ffa2 	beqzl	s7,9d001e48 <_vfprintf_cdfFnopuxX+0x48>
9d001fc0:	82240000 	lb	a0,0(s1)
9d001fc4:	2413ffff 	li	s3,-1
9d001fc8:	2694ffff 	addiu	s4,s4,-1
9d001fcc:	5293ff9e 	beql	s4,s3,9d001e48 <_vfprintf_cdfFnopuxX+0x48>
9d001fd0:	82240000 	lb	a0,0(s1)
9d001fd4:	24040020 	li	a0,32
9d001fd8:	0f40214f 	jal	9d00853c <.LFE0>
9d001fdc:	02402821 	move	a1,s2
9d001fe0:	1053fffa 	beq	v0,s3,9d001fcc <_vfprintf_cdfFnopuxX+0x1cc>
9d001fe4:	2694ffff 	addiu	s4,s4,-1
9d001fe8:	1693fffa 	bne	s4,s3,9d001fd4 <_vfprintf_cdfFnopuxX+0x1d4>
9d001fec:	26100001 	addiu	s0,s0,1
9d001ff0:	82240000 	lb	a0,0(s1)
9d001ff4:	1480ff96 	bnez	a0,9d001e50 <_vfprintf_cdfFnopuxX+0x50>
9d001ff8:	a3a40010 	sb	a0,16(sp)
9d001ffc:	8fbf0064 	lw	ra,100(sp)
9d002000:	02001021 	move	v0,s0
9d002004:	8fbe0060 	lw	s8,96(sp)
9d002008:	8fb7005c 	lw	s7,92(sp)
9d00200c:	8fb60058 	lw	s6,88(sp)
9d002010:	8fb50054 	lw	s5,84(sp)
9d002014:	8fb40050 	lw	s4,80(sp)
9d002018:	8fb3004c 	lw	s3,76(sp)
9d00201c:	8fb20048 	lw	s2,72(sp)
9d002020:	8fb10044 	lw	s1,68(sp)
9d002024:	8fb00040 	lw	s0,64(sp)
9d002028:	03e00008 	jr	ra
9d00202c:	27bd0068 	addiu	sp,sp,104
9d002030:	3c079d00 	lui	a3,0x9d00
9d002034:	00042080 	sll	a0,a0,0x2
9d002038:	24e7204c 	addiu	a3,a3,8268
9d00203c:	00e42021 	addu	a0,a3,a0
9d002040:	8c820000 	lw	v0,0(a0)
9d002044:	00400008 	jr	v0
9d002048:	00000000 	nop
9d00204c:	9d001ffc 	0x9d001ffc
9d002050:	9d001f30 	0x9d001f30
9d002054:	9d001f30 	0x9d001f30
9d002058:	9d001f30 	0x9d001f30
9d00205c:	9d001f30 	0x9d001f30
9d002060:	9d001f30 	0x9d001f30
9d002064:	9d001f30 	0x9d001f30
9d002068:	9d001f30 	0x9d001f30
9d00206c:	9d001f30 	0x9d001f30
9d002070:	9d001f30 	0x9d001f30
9d002074:	9d001f30 	0x9d001f30
9d002078:	9d001f30 	0x9d001f30
9d00207c:	9d001f30 	0x9d001f30
9d002080:	9d001f30 	0x9d001f30
9d002084:	9d001f30 	0x9d001f30
9d002088:	9d001f30 	0x9d001f30
9d00208c:	9d001f30 	0x9d001f30
9d002090:	9d001f30 	0x9d001f30
9d002094:	9d001f30 	0x9d001f30
9d002098:	9d001f30 	0x9d001f30
9d00209c:	9d001f30 	0x9d001f30
9d0020a0:	9d001f30 	0x9d001f30
9d0020a4:	9d001f30 	0x9d001f30
9d0020a8:	9d001f30 	0x9d001f30
9d0020ac:	9d001f30 	0x9d001f30
9d0020b0:	9d001f30 	0x9d001f30
9d0020b4:	9d001f30 	0x9d001f30
9d0020b8:	9d001f30 	0x9d001f30
9d0020bc:	9d001f30 	0x9d001f30
9d0020c0:	9d001f30 	0x9d001f30
9d0020c4:	9d001f30 	0x9d001f30
9d0020c8:	9d001f30 	0x9d001f30
9d0020cc:	9d001f30 	0x9d001f30
9d0020d0:	9d001f30 	0x9d001f30
9d0020d4:	9d001f30 	0x9d001f30
9d0020d8:	9d001f30 	0x9d001f30
9d0020dc:	9d001f30 	0x9d001f30
9d0020e0:	9d001f30 	0x9d001f30
9d0020e4:	9d001f30 	0x9d001f30
9d0020e8:	9d001f30 	0x9d001f30
9d0020ec:	9d001f30 	0x9d001f30
9d0020f0:	9d001f30 	0x9d001f30
9d0020f4:	9d001f30 	0x9d001f30
9d0020f8:	9d001f30 	0x9d001f30
9d0020fc:	9d001f30 	0x9d001f30
9d002100:	9d001f30 	0x9d001f30
9d002104:	9d001f30 	0x9d001f30
9d002108:	9d001f30 	0x9d001f30
9d00210c:	9d001f30 	0x9d001f30
9d002110:	9d001f30 	0x9d001f30
9d002114:	9d001f30 	0x9d001f30
9d002118:	9d001f30 	0x9d001f30
9d00211c:	9d001f30 	0x9d001f30
9d002120:	9d001f30 	0x9d001f30
9d002124:	9d001f30 	0x9d001f30
9d002128:	9d001f30 	0x9d001f30
9d00212c:	9d001f30 	0x9d001f30
9d002130:	9d001f30 	0x9d001f30
9d002134:	9d001f30 	0x9d001f30
9d002138:	9d001f30 	0x9d001f30
9d00213c:	9d001f30 	0x9d001f30
9d002140:	9d001f30 	0x9d001f30
9d002144:	9d001f30 	0x9d001f30
9d002148:	9d001f30 	0x9d001f30
9d00214c:	9d001f30 	0x9d001f30
9d002150:	9d001f30 	0x9d001f30
9d002154:	9d001f30 	0x9d001f30
9d002158:	9d001f30 	0x9d001f30
9d00215c:	9d001f30 	0x9d001f30
9d002160:	9d001f30 	0x9d001f30
9d002164:	9d001f30 	0x9d001f30
9d002168:	9d001f30 	0x9d001f30
9d00216c:	9d001f30 	0x9d001f30
9d002170:	9d001f30 	0x9d001f30
9d002174:	9d001f30 	0x9d001f30
9d002178:	9d001f30 	0x9d001f30
9d00217c:	9d001f30 	0x9d001f30
9d002180:	9d001f30 	0x9d001f30
9d002184:	9d001f30 	0x9d001f30
9d002188:	9d001f30 	0x9d001f30
9d00218c:	9d001f30 	0x9d001f30
9d002190:	9d001f30 	0x9d001f30
9d002194:	9d001f30 	0x9d001f30
9d002198:	9d001f30 	0x9d001f30
9d00219c:	9d001f30 	0x9d001f30
9d0021a0:	9d001f30 	0x9d001f30
9d0021a4:	9d001f30 	0x9d001f30
9d0021a8:	9d001f30 	0x9d001f30
9d0021ac:	9d002418 	0x9d002418
9d0021b0:	9d001f30 	0x9d001f30
9d0021b4:	9d001f30 	0x9d001f30
9d0021b8:	9d001f30 	0x9d001f30
9d0021bc:	9d001f30 	0x9d001f30
9d0021c0:	9d001f30 	0x9d001f30
9d0021c4:	9d001f30 	0x9d001f30
9d0021c8:	9d001f30 	0x9d001f30
9d0021cc:	9d001f30 	0x9d001f30
9d0021d0:	9d001f30 	0x9d001f30
9d0021d4:	9d001f30 	0x9d001f30
9d0021d8:	9d0025e4 	0x9d0025e4
9d0021dc:	9d002234 	0x9d002234
9d0021e0:	9d001f30 	0x9d001f30
9d0021e4:	9d0025dc 	0x9d0025dc
9d0021e8:	9d001f30 	0x9d001f30
9d0021ec:	9d001f30 	0x9d001f30
9d0021f0:	9d002234 	0x9d002234
9d0021f4:	9d001f30 	0x9d001f30
9d0021f8:	9d001f30 	0x9d001f30
9d0021fc:	9d002674 	0x9d002674
9d002200:	9d001f30 	0x9d001f30
9d002204:	9d001f30 	0x9d001f30
9d002208:	9d00266c 	0x9d00266c
9d00220c:	9d002418 	0x9d002418
9d002210:	9d001f30 	0x9d001f30
9d002214:	9d001f30 	0x9d001f30
9d002218:	9d00262c 	0x9d00262c
9d00221c:	9d001f30 	0x9d001f30
9d002220:	9d002230 	0x9d002230
9d002224:	9d001f30 	0x9d001f30
9d002228:	9d001f30 	0x9d001f30
9d00222c:	9d00241c 	0x9d00241c
9d002230:	346300c0 	ori	v1,v1,0xc0
9d002234:	30620700 	andi	v0,v1,0x700
9d002238:	1040007c 	beqz	v0,9d00242c <_vfprintf_cdfFnopuxX+0x62c>
9d00223c:	0060b021 	move	s6,v1
9d002240:	30621000 	andi	v0,v1,0x1000
9d002244:	54400001 	bnezl	v0,9d00224c <_vfprintf_cdfFnopuxX+0x44c>
9d002248:	24130006 	li	s3,6
9d00224c:	30620010 	andi	v0,v1,0x10
9d002250:	1040021d 	beqz	v0,9d002ac8 <_vfprintf_cdfFnopuxX+0xcc8>
9d002254:	8fa70070 	lw	a3,112(sp)
9d002258:	8fa50070 	lw	a1,112(sp)
9d00225c:	2402fff8 	li	v0,-8
9d002260:	24a40007 	addiu	a0,a1,7
9d002264:	00821024 	and	v0,a0,v0
9d002268:	8c440000 	lw	a0,0(v0)
9d00226c:	8c450004 	lw	a1,4(v0)
9d002270:	24420008 	addiu	v0,v0,8
9d002274:	afa3003c 	sw	v1,60(sp)
9d002278:	0f401e49 	jal	9d007924 <__floatdisf>
9d00227c:	afa20070 	sw	v0,112(sp)
9d002280:	8fa3003c 	lw	v1,60(sp)
9d002284:	0040a821 	move	s5,v0
9d002288:	02a02021 	move	a0,s5
9d00228c:	00002821 	move	a1,zero
9d002290:	0f402506 	jal	9d009418 <__eqsf2>
9d002294:	afa3003c 	sw	v1,60(sp)
9d002298:	04410004 	bgez	v0,9d0022ac <_vfprintf_cdfFnopuxX+0x4ac>
9d00229c:	8fa3003c 	lw	v1,60(sp)
9d0022a0:	3c028000 	lui	v0,0x8000
9d0022a4:	0055a826 	xor	s5,v0,s5
9d0022a8:	34760003 	ori	s6,v1,0x3
9d0022ac:	02a02021 	move	a0,s5
9d0022b0:	00002821 	move	a1,zero
9d0022b4:	0f402506 	jal	9d009418 <__eqsf2>
9d0022b8:	afa00018 	sw	zero,24(sp)
9d0022bc:	14400283 	bnez	v0,9d002ccc <_vfprintf_cdfFnopuxX+0xecc>
9d0022c0:	0000f021 	move	s8,zero
9d0022c4:	2a620019 	slti	v0,s3,25
9d0022c8:	1040003e 	beqz	v0,9d0023c4 <_vfprintf_cdfFnopuxX+0x5c4>
9d0022cc:	2bc2000a 	slti	v0,s8,10
9d0022d0:	327700ff 	andi	s7,s3,0xff
9d0022d4:	2ee2006e 	sltiu	v0,s7,110
9d0022d8:	14400213 	bnez	v0,9d002b28 <_vfprintf_cdfFnopuxX+0xd28>
9d0022dc:	2ee2000b 	sltiu	v0,s7,11
9d0022e0:	3c0351eb 	lui	v1,0x51eb
9d0022e4:	3463851f 	ori	v1,v1,0x851f
9d0022e8:	02e30019 	multu	s7,v1
9d0022ec:	3c069d01 	lui	a2,0x9d01
9d0022f0:	00001810 	mfhi	v1
9d0022f4:	24c698f0 	addiu	a2,a2,-26384
9d0022f8:	00031942 	srl	v1,v1,0x5
9d0022fc:	24620012 	addiu	v0,v1,18
9d002300:	00021080 	sll	v0,v0,0x2
9d002304:	00461021 	addu	v0,v0,a2
9d002308:	8c440000 	lw	a0,0(v0)
9d00230c:	3c029d01 	lui	v0,0x9d01
9d002310:	8c458fe8 	lw	a1,-28696(v0)
9d002314:	afa3003c 	sw	v1,60(sp)
9d002318:	0f401fb6 	jal	9d007ed8 <__mulsf3>
9d00231c:	afa60038 	sw	a2,56(sp)
9d002320:	8fa3003c 	lw	v1,60(sp)
9d002324:	8fa60038 	lw	a2,56(sp)
9d002328:	00032080 	sll	a0,v1,0x2
9d00232c:	00031900 	sll	v1,v1,0x4
9d002330:	00831821 	addu	v1,a0,v1
9d002334:	00032880 	sll	a1,v1,0x2
9d002338:	00652821 	addu	a1,v1,a1
9d00233c:	02e52823 	subu	a1,s7,a1
9d002340:	3c03cccc 	lui	v1,0xcccc
9d002344:	3463cccd 	ori	v1,v1,0xcccd
9d002348:	30a500ff 	andi	a1,a1,0xff
9d00234c:	00a30019 	multu	a1,v1
9d002350:	00402021 	move	a0,v0
9d002354:	00002810 	mfhi	a1
9d002358:	afa3003c 	sw	v1,60(sp)
9d00235c:	000510c2 	srl	v0,a1,0x3
9d002360:	24420009 	addiu	v0,v0,9
9d002364:	00021080 	sll	v0,v0,0x2
9d002368:	00461021 	addu	v0,v0,a2
9d00236c:	0f401fb6 	jal	9d007ed8 <__mulsf3>
9d002370:	8c450000 	lw	a1,0(v0)
9d002374:	8fa3003c 	lw	v1,60(sp)
9d002378:	00402021 	move	a0,v0
9d00237c:	02e30019 	multu	s7,v1
9d002380:	8fa60038 	lw	a2,56(sp)
9d002384:	00001810 	mfhi	v1
9d002388:	000318c2 	srl	v1,v1,0x3
9d00238c:	00031040 	sll	v0,v1,0x1
9d002390:	000318c0 	sll	v1,v1,0x3
9d002394:	00431021 	addu	v0,v0,v1
9d002398:	02e21023 	subu	v0,s7,v0
9d00239c:	304200ff 	andi	v0,v0,0xff
9d0023a0:	00021080 	sll	v0,v0,0x2
9d0023a4:	00463021 	addu	a2,v0,a2
9d0023a8:	0f401fb6 	jal	9d007ed8 <__mulsf3>
9d0023ac:	8cc50000 	lw	a1,0(a2)
9d0023b0:	02a02021 	move	a0,s5
9d0023b4:	0f401d21 	jal	9d007484 <__addsf3>
9d0023b8:	00402821 	move	a1,v0
9d0023bc:	0040a821 	move	s5,v0
9d0023c0:	2bc2000a 	slti	v0,s8,10
9d0023c4:	104000ef 	beqz	v0,9d002784 <_vfprintf_cdfFnopuxX+0x984>
9d0023c8:	3c029d01 	lui	v0,0x9d01
9d0023cc:	02a02021 	move	a0,s5
9d0023d0:	0f402506 	jal	9d009418 <__eqsf2>
9d0023d4:	00002821 	move	a1,zero
9d0023d8:	144000e2 	bnez	v0,9d002764 <_vfprintf_cdfFnopuxX+0x964>
9d0023dc:	00000000 	nop
9d0023e0:	0f4025d8 	jal	9d009760 <.LFE0>
9d0023e4:	02a02021 	move	a0,s5
9d0023e8:	00402021 	move	a0,v0
9d0023ec:	00002821 	move	a1,zero
9d0023f0:	0f40238b 	jal	9d008e2c <__floatundisf>
9d0023f4:	0040b821 	move	s7,v0
9d0023f8:	00402821 	move	a1,v0
9d0023fc:	0f401d1f 	jal	9d00747c <.LFE1>
9d002400:	02a02021 	move	a0,s5
9d002404:	0040f021 	move	s8,v0
9d002408:	02e0a821 	move	s5,s7
9d00240c:	afa00018 	sw	zero,24(sp)
9d002410:	0b4009f6 	j	9d0027d8 <_vfprintf_cdfFnopuxX+0x9d8>
9d002414:	00001821 	move	v1,zero
9d002418:	34630020 	ori	v1,v1,0x20
9d00241c:	34630080 	ori	v1,v1,0x80
9d002420:	30620700 	andi	v0,v1,0x700
9d002424:	1440ff86 	bnez	v0,9d002240 <_vfprintf_cdfFnopuxX+0x440>
9d002428:	0060b021 	move	s6,v1
9d00242c:	306200c0 	andi	v0,v1,0xc0
9d002430:	144001a9 	bnez	v0,9d002ad8 <_vfprintf_cdfFnopuxX+0xcd8>
9d002434:	7c031620 	seh	v0,v1
9d002438:	04400312 	bltz	v0,9d003084 <_vfprintf_cdfFnopuxX+0x1284>
9d00243c:	8fa40070 	lw	a0,112(sp)
9d002440:	30620010 	andi	v0,v1,0x10
9d002444:	104001dd 	beqz	v0,9d002bbc <_vfprintf_cdfFnopuxX+0xdbc>
9d002448:	8fa70070 	lw	a3,112(sp)
9d00244c:	8fa50070 	lw	a1,112(sp)
9d002450:	8ca40000 	lw	a0,0(a1)
9d002454:	24a50004 	addiu	a1,a1,4
9d002458:	000417c3 	sra	v0,a0,0x1f
9d00245c:	afa50070 	sw	a1,112(sp)
9d002460:	0080a821 	move	s5,a0
9d002464:	0040f021 	move	s8,v0
9d002468:	04410005 	bgez	v0,9d002480 <_vfprintf_cdfFnopuxX+0x680>
9d00246c:	00021023 	negu	v0,v0
9d002470:	0004a823 	negu	s5,a0
9d002474:	0015202b 	sltu	a0,zero,s5
9d002478:	34630003 	ori	v1,v1,0x3
9d00247c:	0044f023 	subu	s8,v0,a0
9d002480:	16600003 	bnez	s3,9d002490 <_vfprintf_cdfFnopuxX+0x690>
9d002484:	307700c0 	andi	s7,v1,0xc0
9d002488:	02be9825 	or	s3,s5,s8
9d00248c:	2e730001 	sltiu	s3,s3,1
9d002490:	24020040 	li	v0,64
9d002494:	12e20233 	beq	s7,v0,9d002d64 <_vfprintf_cdfFnopuxX+0xf64>
9d002498:	2ae20041 	slti	v0,s7,65
9d00249c:	10400205 	beqz	v0,9d002cb4 <_vfprintf_cdfFnopuxX+0xeb4>
9d0024a0:	24020080 	li	v0,128
9d0024a4:	16e00016 	bnez	s7,9d002500 <_vfprintf_cdfFnopuxX+0x700>
9d0024a8:	83a20010 	lb	v0,16(sp)
9d0024ac:	24020001 	li	v0,1
9d0024b0:	13c00327 	beqz	s8,9d003150 <_vfprintf_cdfFnopuxX+0x1350>
9d0024b4:	a3a20010 	sb	v0,16(sp)
9d0024b8:	3c049d01 	lui	a0,0x9d01
9d0024bc:	24848f50 	addiu	a0,a0,-28848
9d0024c0:	24070002 	li	a3,2
9d0024c4:	24020002 	li	v0,2
9d0024c8:	0b400935 	j	9d0024d4 <_vfprintf_cdfFnopuxX+0x6d4>
9d0024cc:	24080014 	li	t0,20
9d0024d0:	00403821 	move	a3,v0
9d0024d4:	8c850004 	lw	a1,4(a0)
9d0024d8:	03c5302b 	sltu	a2,s8,a1
9d0024dc:	54c0030d 	bnezl	a2,9d003114 <_vfprintf_cdfFnopuxX+0x1314>
9d0024e0:	a3a70010 	sb	a3,16(sp)
9d0024e4:	50be0307 	beql	a1,s8,9d003104 <_vfprintf_cdfFnopuxX+0x1304>
9d0024e8:	8c850000 	lw	a1,0(a0)
9d0024ec:	24420001 	addiu	v0,v0,1
9d0024f0:	7c021420 	seb	v0,v0
9d0024f4:	1448fff6 	bne	v0,t0,9d0024d0 <_vfprintf_cdfFnopuxX+0x6d0>
9d0024f8:	24840008 	addiu	a0,a0,8
9d0024fc:	a3a20010 	sb	v0,16(sp)
9d002500:	0053202a 	slt	a0,v0,s3
9d002504:	108001b9 	beqz	a0,9d002bec <_vfprintf_cdfFnopuxX+0xdec>
9d002508:	0262202a 	slt	a0,s3,v0
9d00250c:	7c131420 	seb	v0,s3
9d002510:	a3a20010 	sb	v0,16(sp)
9d002514:	12800005 	beqz	s4,9d00252c <_vfprintf_cdfFnopuxX+0x72c>
9d002518:	30644000 	andi	a0,v1,0x4000
9d00251c:	30640003 	andi	a0,v1,0x3
9d002520:	54800001 	bnezl	a0,9d002528 <_vfprintf_cdfFnopuxX+0x728>
9d002524:	2694ffff 	addiu	s4,s4,-1
9d002528:	30644000 	andi	a0,v1,0x4000
9d00252c:	10800006 	beqz	a0,9d002548 <_vfprintf_cdfFnopuxX+0x748>
9d002530:	0054202a 	slt	a0,v0,s4
9d002534:	0274202a 	slt	a0,s3,s4
9d002538:	50800002 	beqzl	a0,9d002544 <_vfprintf_cdfFnopuxX+0x744>
9d00253c:	0000a021 	move	s4,zero
9d002540:	0293a023 	subu	s4,s4,s3
9d002544:	0054202a 	slt	a0,v0,s4
9d002548:	50800003 	beqzl	a0,9d002558 <_vfprintf_cdfFnopuxX+0x758>
9d00254c:	afa00020 	sw	zero,32(sp)
9d002550:	02821023 	subu	v0,s4,v0
9d002554:	afa20020 	sw	v0,32(sp)
9d002558:	30620004 	andi	v0,v1,0x4
9d00255c:	104001c1 	beqz	v0,9d002c64 <_vfprintf_cdfFnopuxX+0xe64>
9d002560:	8fa20020 	lw	v0,32(sp)
9d002564:	30620002 	andi	v0,v1,0x2
9d002568:	10400232 	beqz	v0,9d002e34 <_vfprintf_cdfFnopuxX+0x1034>
9d00256c:	30620001 	andi	v0,v1,0x1
9d002570:	14400002 	bnez	v0,9d00257c <_vfprintf_cdfFnopuxX+0x77c>
9d002574:	2404002d 	li	a0,45
9d002578:	2404002b 	li	a0,43
9d00257c:	02402821 	move	a1,s2
9d002580:	0f40214f 	jal	9d00853c <.LFE0>
9d002584:	afa3003c 	sw	v1,60(sp)
9d002588:	2404ffff 	li	a0,-1
9d00258c:	1044022b 	beq	v0,a0,9d002e3c <_vfprintf_cdfFnopuxX+0x103c>
9d002590:	8fa3003c 	lw	v1,60(sp)
9d002594:	8fa20020 	lw	v0,32(sp)
9d002598:	1040022b 	beqz	v0,9d002e48 <_vfprintf_cdfFnopuxX+0x1048>
9d00259c:	26100001 	addiu	s0,s0,1
9d0025a0:	2414ffff 	li	s4,-1
9d0025a4:	24040030 	li	a0,48
9d0025a8:	02402821 	move	a1,s2
9d0025ac:	0f40214f 	jal	9d00853c <.LFE0>
9d0025b0:	afa3003c 	sw	v1,60(sp)
9d0025b4:	10540002 	beq	v0,s4,9d0025c0 <_vfprintf_cdfFnopuxX+0x7c0>
9d0025b8:	8fa3003c 	lw	v1,60(sp)
9d0025bc:	26100001 	addiu	s0,s0,1
9d0025c0:	8fa50020 	lw	a1,32(sp)
9d0025c4:	24a5ffff 	addiu	a1,a1,-1
9d0025c8:	14a0fff6 	bnez	a1,9d0025a4 <_vfprintf_cdfFnopuxX+0x7a4>
9d0025cc:	afa50020 	sw	a1,32(sp)
9d0025d0:	30670008 	andi	a3,v1,0x8
9d0025d4:	0b400b94 	j	9d002e50 <_vfprintf_cdfFnopuxX+0x1050>
9d0025d8:	afa70034 	sw	a3,52(sp)
9d0025dc:	0b40088d 	j	9d002234 <_vfprintf_cdfFnopuxX+0x434>
9d0025e0:	34630400 	ori	v1,v1,0x400
9d0025e4:	8fa40070 	lw	a0,112(sp)
9d0025e8:	30660010 	andi	a2,v1,0x10
9d0025ec:	80820001 	lb	v0,1(a0)
9d0025f0:	8c850000 	lw	a1,0(a0)
9d0025f4:	24840004 	addiu	a0,a0,4
9d0025f8:	10c00177 	beqz	a2,9d002bd8 <_vfprintf_cdfFnopuxX+0xdd8>
9d0025fc:	a3a20010 	sb	v0,16(sp)
9d002600:	50400176 	beqzl	v0,9d002bdc <_vfprintf_cdfFnopuxX+0xddc>
9d002604:	a3a50014 	sb	a1,20(sp)
9d002608:	2406ffff 	li	a2,-1
9d00260c:	50460173 	beql	v0,a2,9d002bdc <_vfprintf_cdfFnopuxX+0xddc>
9d002610:	a3a50014 	sb	a1,20(sp)
9d002614:	a3a20014 	sb	v0,20(sp)
9d002618:	a3a50015 	sb	a1,21(sp)
9d00261c:	24160002 	li	s6,2
9d002620:	27b50014 	addiu	s5,sp,20
9d002624:	0b4007ce 	j	9d001f38 <_vfprintf_cdfFnopuxX+0x138>
9d002628:	afa40070 	sw	a0,112(sp)
9d00262c:	8fa20070 	lw	v0,112(sp)
9d002630:	8c440000 	lw	a0,0(v0)
9d002634:	24450004 	addiu	a1,v0,4
9d002638:	108002ae 	beqz	a0,9d0030f4 <_vfprintf_cdfFnopuxX+0x12f4>
9d00263c:	0080a821 	move	s5,a0
9d002640:	80820000 	lb	v0,0(a0)
9d002644:	504002c0 	beqzl	v0,9d003148 <_vfprintf_cdfFnopuxX+0x1348>
9d002648:	afa50070 	sw	a1,112(sp)
9d00264c:	0000b021 	move	s6,zero
9d002650:	26d60001 	addiu	s6,s6,1
9d002654:	00961021 	addu	v0,a0,s6
9d002658:	80420000 	lb	v0,0(v0)
9d00265c:	5440fffd 	bnezl	v0,9d002654 <_vfprintf_cdfFnopuxX+0x854>
9d002660:	26d60001 	addiu	s6,s6,1
9d002664:	0b4007ce 	j	9d001f38 <_vfprintf_cdfFnopuxX+0x138>
9d002668:	afa50070 	sw	a1,112(sp)
9d00266c:	0b40088d 	j	9d002234 <_vfprintf_cdfFnopuxX+0x434>
9d002670:	34630040 	ori	v1,v1,0x40
9d002674:	30620010 	andi	v0,v1,0x10
9d002678:	54400002 	bnezl	v0,9d002684 <_vfprintf_cdfFnopuxX+0x884>
9d00267c:	24028000 	li	v0,-32768
9d002680:	24020010 	li	v0,16
9d002684:	00431825 	or	v1,v0,v1
9d002688:	3063ffff 	andi	v1,v1,0xffff
9d00268c:	0b4007c7 	j	9d001f1c <_vfprintf_cdfFnopuxX+0x11c>
9d002690:	82220000 	lb	v0,0(s1)
9d002694:	5448fe02 	bnel	v0,t0,9d001ea0 <_vfprintf_cdfFnopuxX+0xa0>
9d002698:	30640002 	andi	a0,v1,0x2
9d00269c:	34630004 	ori	v1,v1,0x4
9d0026a0:	24840001 	addiu	a0,a0,1
9d0026a4:	8082ffff 	lb	v0,-1(a0)
9d0026a8:	1446fdf5 	bne	v0,a2,9d001e80 <_vfprintf_cdfFnopuxX+0x80>
9d0026ac:	2491ffff 	addiu	s1,a0,-1
9d0026b0:	34630008 	ori	v1,v1,0x8
9d0026b4:	0b4009a9 	j	9d0026a4 <_vfprintf_cdfFnopuxX+0x8a4>
9d0026b8:	24840001 	addiu	a0,a0,1
9d0026bc:	0f40214f 	jal	9d00853c <.LFE0>
9d0026c0:	02402821 	move	a1,s2
9d0026c4:	2403ffff 	li	v1,-1
9d0026c8:	1043fdde 	beq	v0,v1,9d001e44 <_vfprintf_cdfFnopuxX+0x44>
9d0026cc:	02608821 	move	s1,s3
9d0026d0:	0b400791 	j	9d001e44 <_vfprintf_cdfFnopuxX+0x44>
9d0026d4:	26100001 	addiu	s0,s0,1
9d0026d8:	0b4009a9 	j	9d0026a4 <_vfprintf_cdfFnopuxX+0x8a4>
9d0026dc:	24840001 	addiu	a0,a0,1
9d0026e0:	0b4009a9 	j	9d0026a4 <_vfprintf_cdfFnopuxX+0x8a4>
9d0026e4:	24840001 	addiu	a0,a0,1
9d0026e8:	10440105 	beq	v0,a0,9d002b00 <_vfprintf_cdfFnopuxX+0xd00>
9d0026ec:	2404002e 	li	a0,46
9d0026f0:	1444fe08 	bne	v0,a0,9d001f14 <_vfprintf_cdfFnopuxX+0x114>
9d0026f4:	0000a021 	move	s4,zero
9d0026f8:	26310001 	addiu	s1,s1,1
9d0026fc:	82220000 	lb	v0,0(s1)
9d002700:	2404002a 	li	a0,42
9d002704:	10440190 	beq	v0,a0,9d002d48 <_vfprintf_cdfFnopuxX+0xf48>
9d002708:	34634000 	ori	v1,v1,0x4000
9d00270c:	3c059d01 	lui	a1,0x9d01
9d002710:	24a58b24 	addiu	a1,a1,-29916
9d002714:	00a22021 	addu	a0,a1,v0
9d002718:	90840001 	lbu	a0,1(a0)
9d00271c:	30840004 	andi	a0,a0,0x4
9d002720:	1080fdfd 	beqz	a0,9d001f18 <_vfprintf_cdfFnopuxX+0x118>
9d002724:	00009821 	move	s3,zero
9d002728:	00132040 	sll	a0,s3,0x1
9d00272c:	001398c0 	sll	s3,s3,0x3
9d002730:	00939821 	addu	s3,a0,s3
9d002734:	26310001 	addiu	s1,s1,1
9d002738:	02629821 	addu	s3,s3,v0
9d00273c:	3c059d01 	lui	a1,0x9d01
9d002740:	82220000 	lb	v0,0(s1)
9d002744:	24a58b24 	addiu	a1,a1,-29916
9d002748:	00a22021 	addu	a0,a1,v0
9d00274c:	90840001 	lbu	a0,1(a0)
9d002750:	30840004 	andi	a0,a0,0x4
9d002754:	1480fff4 	bnez	a0,9d002728 <_vfprintf_cdfFnopuxX+0x928>
9d002758:	2673ffd0 	addiu	s3,s3,-48
9d00275c:	0b4007c8 	j	9d001f20 <_vfprintf_cdfFnopuxX+0x120>
9d002760:	304400ff 	andi	a0,v0,0xff
9d002764:	0f4025d8 	jal	9d009760 <.LFE0>
9d002768:	02a02021 	move	a0,s5
9d00276c:	1440ff1f 	bnez	v0,9d0023ec <_vfprintf_cdfFnopuxX+0x5ec>
9d002770:	00402021 	move	a0,v0
9d002774:	2bc30002 	slti	v1,s8,2
9d002778:	1460ff1d 	bnez	v1,9d0023f0 <_vfprintf_cdfFnopuxX+0x5f0>
9d00277c:	00002821 	move	a1,zero
9d002780:	3c029d01 	lui	v0,0x9d01
9d002784:	24428fec 	addiu	v0,v0,-28692
9d002788:	8fa40030 	lw	a0,48(sp)
9d00278c:	0f402506 	jal	9d009418 <__eqsf2>
9d002790:	8c450000 	lw	a1,0(v0)
9d002794:	044000e2 	bltz	v0,9d002b20 <_vfprintf_cdfFnopuxX+0xd20>
9d002798:	27c3ffed 	addiu	v1,s8,-19
9d00279c:	27c3ffee 	addiu	v1,s8,-18
9d0027a0:	afa30018 	sw	v1,24(sp)
9d0027a4:	7c032420 	seb	a0,v1
9d0027a8:	0f401c77 	jal	9d0071dc <scale>
9d0027ac:	afa3003c 	sw	v1,60(sp)
9d0027b0:	00402821 	move	a1,v0
9d0027b4:	02a02021 	move	a0,s5
9d0027b8:	0f401dbd 	jal	9d0076f4 <__divsf3>
9d0027bc:	afa20030 	sw	v0,48(sp)
9d0027c0:	0f4025d8 	jal	9d009760 <.LFE0>
9d0027c4:	00402021 	move	a0,v0
9d0027c8:	8fa3003c 	lw	v1,60(sp)
9d0027cc:	0040b821 	move	s7,v0
9d0027d0:	0040a821 	move	s5,v0
9d0027d4:	0000f021 	move	s8,zero
9d0027d8:	24040001 	li	a0,1
9d0027dc:	2ee2000a 	sltiu	v0,s7,10
9d0027e0:	14400257 	bnez	v0,9d003140 <_vfprintf_cdfFnopuxX+0x1340>
9d0027e4:	a3a40010 	sb	a0,16(sp)
9d0027e8:	3c049d01 	lui	a0,0x9d01
9d0027ec:	24848f50 	addiu	a0,a0,-28848
9d0027f0:	00001021 	move	v0,zero
9d0027f4:	24050002 	li	a1,2
9d0027f8:	24070002 	li	a3,2
9d0027fc:	0b400a02 	j	9d002808 <_vfprintf_cdfFnopuxX+0xa08>
9d002800:	24090012 	li	t1,18
9d002804:	00a03821 	move	a3,a1
9d002808:	8c860004 	lw	a2,4(a0)
9d00280c:	14c00127 	bnez	a2,9d002cac <_vfprintf_cdfFnopuxX+0xeac>
9d002810:	24480002 	addiu	t0,v0,2
9d002814:	8c860000 	lw	a2,0(a0)
9d002818:	02e6302b 	sltu	a2,s7,a2
9d00281c:	14c00123 	bnez	a2,9d002cac <_vfprintf_cdfFnopuxX+0xeac>
9d002820:	24420001 	addiu	v0,v0,1
9d002824:	24e50001 	addiu	a1,a3,1
9d002828:	7c052c20 	seb	a1,a1
9d00282c:	1449fff5 	bne	v0,t1,9d002804 <_vfprintf_cdfFnopuxX+0xa04>
9d002830:	24840008 	addiu	a0,a0,8
9d002834:	a3a50010 	sb	a1,16(sp)
9d002838:	24080014 	li	t0,20
9d00283c:	0283b823 	subu	s7,s4,v1
9d002840:	02f3b823 	subu	s7,s7,s3
9d002844:	12600002 	beqz	s3,9d002850 <_vfprintf_cdfFnopuxX+0xa50>
9d002848:	02e8b823 	subu	s7,s7,t0
9d00284c:	26f7ffff 	addiu	s7,s7,-1
9d002850:	32c20003 	andi	v0,s6,0x3
9d002854:	54400001 	bnezl	v0,9d00285c <_vfprintf_cdfFnopuxX+0xa5c>
9d002858:	26f7ffff 	addiu	s7,s7,-1
9d00285c:	32c20004 	andi	v0,s6,0x4
9d002860:	104000e6 	beqz	v0,9d002bfc <_vfprintf_cdfFnopuxX+0xdfc>
9d002864:	32c30008 	andi	v1,s6,0x8
9d002868:	32c20002 	andi	v0,s6,0x2
9d00286c:	104001f0 	beqz	v0,9d003030 <_vfprintf_cdfFnopuxX+0x1230>
9d002870:	32c20001 	andi	v0,s6,0x1
9d002874:	14400002 	bnez	v0,9d002880 <_vfprintf_cdfFnopuxX+0xa80>
9d002878:	2404002d 	li	a0,45
9d00287c:	2404002b 	li	a0,43
9d002880:	0f40214f 	jal	9d00853c <.LFE0>
9d002884:	02402821 	move	a1,s2
9d002888:	2403ffff 	li	v1,-1
9d00288c:	54430001 	bnel	v0,v1,9d002894 <_vfprintf_cdfFnopuxX+0xa94>
9d002890:	26100001 	addiu	s0,s0,1
9d002894:	1ae00009 	blez	s7,9d0028bc <_vfprintf_cdfFnopuxX+0xabc>
9d002898:	2414ffff 	li	s4,-1
9d00289c:	24040030 	li	a0,48
9d0028a0:	0f40214f 	jal	9d00853c <.LFE0>
9d0028a4:	02402821 	move	a1,s2
9d0028a8:	54540001 	bnel	v0,s4,9d0028b0 <_vfprintf_cdfFnopuxX+0xab0>
9d0028ac:	26100001 	addiu	s0,s0,1
9d0028b0:	26f7ffff 	addiu	s7,s7,-1
9d0028b4:	16e0fffa 	bnez	s7,9d0028a0 <_vfprintf_cdfFnopuxX+0xaa0>
9d0028b8:	24040030 	li	a0,48
9d0028bc:	32d60008 	andi	s6,s6,0x8
9d0028c0:	afb60020 	sw	s6,32(sp)
9d0028c4:	3c049d01 	lui	a0,0x9d01
9d0028c8:	24968f40 	addiu	s6,a0,-28864
9d0028cc:	2414ffff 	li	s4,-1
9d0028d0:	83a20010 	lb	v0,16(sp)
9d0028d4:	2443ffff 	addiu	v1,v0,-1
9d0028d8:	7c031c20 	seb	v1,v1
9d0028dc:	10400017 	beqz	v0,9d00293c <_vfprintf_cdfFnopuxX+0xb3c>
9d0028e0:	a3a30010 	sb	v1,16(sp)
9d0028e4:	000318c0 	sll	v1,v1,0x3
9d0028e8:	02c31821 	addu	v1,s6,v1
9d0028ec:	8c660000 	lw	a2,0(v1)
9d0028f0:	8c670004 	lw	a3,4(v1)
9d0028f4:	02a02021 	move	a0,s5
9d0028f8:	0f4014bb 	jal	9d0052ec <__udivdi3>
9d0028fc:	00002821 	move	a1,zero
9d002900:	00402021 	move	a0,v0
9d002904:	00602821 	move	a1,v1
9d002908:	2406000a 	li	a2,10
9d00290c:	0f4016e8 	jal	9d005ba0 <__umoddi3>
9d002910:	00003821 	move	a3,zero
9d002914:	24440030 	addiu	a0,v0,48
9d002918:	0f40214f 	jal	9d00853c <.LFE0>
9d00291c:	02402821 	move	a1,s2
9d002920:	1054ffeb 	beq	v0,s4,9d0028d0 <_vfprintf_cdfFnopuxX+0xad0>
9d002924:	83a20010 	lb	v0,16(sp)
9d002928:	26100001 	addiu	s0,s0,1
9d00292c:	2443ffff 	addiu	v1,v0,-1
9d002930:	7c031c20 	seb	v1,v1
9d002934:	1440ffeb 	bnez	v0,9d0028e4 <_vfprintf_cdfFnopuxX+0xae4>
9d002938:	a3a30010 	sb	v1,16(sp)
9d00293c:	8fa20018 	lw	v0,24(sp)
9d002940:	1840000c 	blez	v0,9d002974 <_vfprintf_cdfFnopuxX+0xb74>
9d002944:	2a620013 	slti	v0,s3,19
9d002948:	2414ffff 	li	s4,-1
9d00294c:	24040030 	li	a0,48
9d002950:	0f40214f 	jal	9d00853c <.LFE0>
9d002954:	02402821 	move	a1,s2
9d002958:	54540001 	bnel	v0,s4,9d002960 <_vfprintf_cdfFnopuxX+0xb60>
9d00295c:	26100001 	addiu	s0,s0,1
9d002960:	8fa20018 	lw	v0,24(sp)
9d002964:	2442ffff 	addiu	v0,v0,-1
9d002968:	1c40fff8 	bgtz	v0,9d00294c <_vfprintf_cdfFnopuxX+0xb4c>
9d00296c:	afa20018 	sw	v0,24(sp)
9d002970:	2a620013 	slti	v0,s3,19
9d002974:	144001b2 	bnez	v0,9d003040 <_vfprintf_cdfFnopuxX+0x1240>
9d002978:	7c131420 	seb	v0,s3
9d00297c:	24020012 	li	v0,18
9d002980:	a3a20010 	sb	v0,16(sp)
9d002984:	2673ffee 	addiu	s3,s3,-18
9d002988:	2404002e 	li	a0,46
9d00298c:	0f40214f 	jal	9d00853c <.LFE0>
9d002990:	02402821 	move	a1,s2
9d002994:	2403ffff 	li	v1,-1
9d002998:	10430002 	beq	v0,v1,9d0029a4 <_vfprintf_cdfFnopuxX+0xba4>
9d00299c:	83b40010 	lb	s4,16(sp)
9d0029a0:	26100001 	addiu	s0,s0,1
9d0029a4:	0f401c77 	jal	9d0071dc <scale>
9d0029a8:	02802021 	move	a0,s4
9d0029ac:	00402021 	move	a0,v0
9d0029b0:	0f401fb6 	jal	9d007ed8 <__mulsf3>
9d0029b4:	03c02821 	move	a1,s8
9d0029b8:	0f4025d8 	jal	9d009760 <.LFE0>
9d0029bc:	00402021 	move	a0,v0
9d0029c0:	0040a821 	move	s5,v0
9d0029c4:	2682ffff 	addiu	v0,s4,-1
9d0029c8:	7c021420 	seb	v0,v0
9d0029cc:	0000f021 	move	s8,zero
9d0029d0:	12800023 	beqz	s4,9d002a60 <_vfprintf_cdfFnopuxX+0xc60>
9d0029d4:	a3a20010 	sb	v0,16(sp)
9d0029d8:	3c059d01 	lui	a1,0x9d01
9d0029dc:	24b68f40 	addiu	s6,a1,-28864
9d0029e0:	000210c0 	sll	v0,v0,0x3
9d0029e4:	02c21021 	addu	v0,s6,v0
9d0029e8:	8c460000 	lw	a2,0(v0)
9d0029ec:	8c470004 	lw	a3,4(v0)
9d0029f0:	02a02021 	move	a0,s5
9d0029f4:	0f4014bb 	jal	9d0052ec <__udivdi3>
9d0029f8:	03c02821 	move	a1,s8
9d0029fc:	00402021 	move	a0,v0
9d002a00:	00003821 	move	a3,zero
9d002a04:	00602821 	move	a1,v1
9d002a08:	0f4016e8 	jal	9d005ba0 <__umoddi3>
9d002a0c:	2406000a 	li	a2,10
9d002a10:	24440030 	addiu	a0,v0,48
9d002a14:	0f40214f 	jal	9d00853c <.LFE0>
9d002a18:	02402821 	move	a1,s2
9d002a1c:	2407ffff 	li	a3,-1
9d002a20:	54470001 	bnel	v0,a3,9d002a28 <_vfprintf_cdfFnopuxX+0xc28>
9d002a24:	26100001 	addiu	s0,s0,1
9d002a28:	83b40010 	lb	s4,16(sp)
9d002a2c:	03c02821 	move	a1,s8
9d002a30:	001410c0 	sll	v0,s4,0x3
9d002a34:	02c21021 	addu	v0,s6,v0
9d002a38:	8c460000 	lw	a2,0(v0)
9d002a3c:	8c470004 	lw	a3,4(v0)
9d002a40:	0f4016e8 	jal	9d005ba0 <__umoddi3>
9d002a44:	02a02021 	move	a0,s5
9d002a48:	0040a821 	move	s5,v0
9d002a4c:	2682ffff 	addiu	v0,s4,-1
9d002a50:	7c021420 	seb	v0,v0
9d002a54:	0060f021 	move	s8,v1
9d002a58:	1680ffe1 	bnez	s4,9d0029e0 <_vfprintf_cdfFnopuxX+0xbe0>
9d002a5c:	a3a20010 	sb	v0,16(sp)
9d002a60:	1260000b 	beqz	s3,9d002a90 <_vfprintf_cdfFnopuxX+0xc90>
9d002a64:	8fa20020 	lw	v0,32(sp)
9d002a68:	2414ffff 	li	s4,-1
9d002a6c:	24040030 	li	a0,48
9d002a70:	0f40214f 	jal	9d00853c <.LFE0>
9d002a74:	02402821 	move	a1,s2
9d002a78:	54540001 	bnel	v0,s4,9d002a80 <_vfprintf_cdfFnopuxX+0xc80>
9d002a7c:	26100001 	addiu	s0,s0,1
9d002a80:	2673ffff 	addiu	s3,s3,-1
9d002a84:	1660fffa 	bnez	s3,9d002a70 <_vfprintf_cdfFnopuxX+0xc70>
9d002a88:	24040030 	li	a0,48
9d002a8c:	8fa20020 	lw	v0,32(sp)
9d002a90:	5040fced 	beqzl	v0,9d001e48 <_vfprintf_cdfFnopuxX+0x48>
9d002a94:	82240000 	lb	a0,0(s1)
9d002a98:	1ae0fcea 	blez	s7,9d001e44 <_vfprintf_cdfFnopuxX+0x44>
9d002a9c:	2413ffff 	li	s3,-1
9d002aa0:	24040020 	li	a0,32
9d002aa4:	0f40214f 	jal	9d00853c <.LFE0>
9d002aa8:	02402821 	move	a1,s2
9d002aac:	54530001 	bnel	v0,s3,9d002ab4 <_vfprintf_cdfFnopuxX+0xcb4>
9d002ab0:	26100001 	addiu	s0,s0,1
9d002ab4:	26f7ffff 	addiu	s7,s7,-1
9d002ab8:	56e0fffa 	bnezl	s7,9d002aa4 <_vfprintf_cdfFnopuxX+0xca4>
9d002abc:	24040020 	li	a0,32
9d002ac0:	0b400792 	j	9d001e48 <_vfprintf_cdfFnopuxX+0x48>
9d002ac4:	82240000 	lb	a0,0(s1)
9d002ac8:	8cf50000 	lw	s5,0(a3)
9d002acc:	24e70004 	addiu	a3,a3,4
9d002ad0:	0b4008a2 	j	9d002288 <_vfprintf_cdfFnopuxX+0x488>
9d002ad4:	afa70070 	sw	a3,112(sp)
9d002ad8:	04400174 	bltz	v0,9d0030ac <_vfprintf_cdfFnopuxX+0x12ac>
9d002adc:	30620010 	andi	v0,v1,0x10
9d002ae0:	10400031 	beqz	v0,9d002ba8 <_vfprintf_cdfFnopuxX+0xda8>
9d002ae4:	8fa70070 	lw	a3,112(sp)
9d002ae8:	8fa50070 	lw	a1,112(sp)
9d002aec:	0000f021 	move	s8,zero
9d002af0:	8cb50000 	lw	s5,0(a1)
9d002af4:	24a50004 	addiu	a1,a1,4
9d002af8:	0b400920 	j	9d002480 <_vfprintf_cdfFnopuxX+0x680>
9d002afc:	afa50070 	sw	a1,112(sp)
9d002b00:	8fa40070 	lw	a0,112(sp)
9d002b04:	8fa20070 	lw	v0,112(sp)
9d002b08:	26310001 	addiu	s1,s1,1
9d002b0c:	24840004 	addiu	a0,a0,4
9d002b10:	8c540000 	lw	s4,0(v0)
9d002b14:	82220000 	lb	v0,0(s1)
9d002b18:	0b4007c2 	j	9d001f08 <_vfprintf_cdfFnopuxX+0x108>
9d002b1c:	afa40070 	sw	a0,112(sp)
9d002b20:	0b4009e9 	j	9d0027a4 <_vfprintf_cdfFnopuxX+0x9a4>
9d002b24:	afa30018 	sw	v1,24(sp)
9d002b28:	54400169 	bnezl	v0,9d0030d0 <_vfprintf_cdfFnopuxX+0x12d0>
9d002b2c:	3c029d01 	lui	v0,0x9d01
9d002b30:	3c03cccc 	lui	v1,0xcccc
9d002b34:	3463cccd 	ori	v1,v1,0xcccd
9d002b38:	02e30019 	multu	s7,v1
9d002b3c:	3c069d01 	lui	a2,0x9d01
9d002b40:	00001810 	mfhi	v1
9d002b44:	24c698f0 	addiu	a2,a2,-26384
9d002b48:	000318c2 	srl	v1,v1,0x3
9d002b4c:	24620009 	addiu	v0,v1,9
9d002b50:	00021080 	sll	v0,v0,0x2
9d002b54:	00461021 	addu	v0,v0,a2
9d002b58:	8c440000 	lw	a0,0(v0)
9d002b5c:	3c029d01 	lui	v0,0x9d01
9d002b60:	8c458fe8 	lw	a1,-28696(v0)
9d002b64:	afa3003c 	sw	v1,60(sp)
9d002b68:	0f401fb6 	jal	9d007ed8 <__mulsf3>
9d002b6c:	afa60038 	sw	a2,56(sp)
9d002b70:	8fa3003c 	lw	v1,60(sp)
9d002b74:	8fa60038 	lw	a2,56(sp)
9d002b78:	00032040 	sll	a0,v1,0x1
9d002b7c:	000318c0 	sll	v1,v1,0x3
9d002b80:	00831821 	addu	v1,a0,v1
9d002b84:	02e31823 	subu	v1,s7,v1
9d002b88:	306300ff 	andi	v1,v1,0xff
9d002b8c:	00031880 	sll	v1,v1,0x2
9d002b90:	00663021 	addu	a2,v1,a2
9d002b94:	8cc50000 	lw	a1,0(a2)
9d002b98:	0f401fb6 	jal	9d007ed8 <__mulsf3>
9d002b9c:	00402021 	move	a0,v0
9d002ba0:	0b4008ed 	j	9d0023b4 <_vfprintf_cdfFnopuxX+0x5b4>
9d002ba4:	02a02021 	move	a0,s5
9d002ba8:	0000f021 	move	s8,zero
9d002bac:	8cf50000 	lw	s5,0(a3)
9d002bb0:	24e70004 	addiu	a3,a3,4
9d002bb4:	0b400920 	j	9d002480 <_vfprintf_cdfFnopuxX+0x680>
9d002bb8:	afa70070 	sw	a3,112(sp)
9d002bbc:	8ce40000 	lw	a0,0(a3)
9d002bc0:	24e70004 	addiu	a3,a3,4
9d002bc4:	000417c3 	sra	v0,a0,0x1f
9d002bc8:	afa70070 	sw	a3,112(sp)
9d002bcc:	0080a821 	move	s5,a0
9d002bd0:	0b40091a 	j	9d002468 <_vfprintf_cdfFnopuxX+0x668>
9d002bd4:	0040f021 	move	s8,v0
9d002bd8:	a3a50014 	sb	a1,20(sp)
9d002bdc:	24160001 	li	s6,1
9d002be0:	27b50014 	addiu	s5,sp,20
9d002be4:	0b4007ce 	j	9d001f38 <_vfprintf_cdfFnopuxX+0x138>
9d002be8:	afa40070 	sw	a0,112(sp)
9d002bec:	5480fe49 	bnezl	a0,9d002514 <_vfprintf_cdfFnopuxX+0x714>
9d002bf0:	00409821 	move	s3,v0
9d002bf4:	0b400945 	j	9d002514 <_vfprintf_cdfFnopuxX+0x714>
9d002bf8:	00000000 	nop
9d002bfc:	1460000c 	bnez	v1,9d002c30 <_vfprintf_cdfFnopuxX+0xe30>
9d002c00:	afa30020 	sw	v1,32(sp)
9d002c04:	1ae0000b 	blez	s7,9d002c34 <_vfprintf_cdfFnopuxX+0xe34>
9d002c08:	32c20002 	andi	v0,s6,0x2
9d002c0c:	2414ffff 	li	s4,-1
9d002c10:	24040020 	li	a0,32
9d002c14:	0f40214f 	jal	9d00853c <.LFE0>
9d002c18:	02402821 	move	a1,s2
9d002c1c:	54540001 	bnel	v0,s4,9d002c24 <_vfprintf_cdfFnopuxX+0xe24>
9d002c20:	26100001 	addiu	s0,s0,1
9d002c24:	26f7ffff 	addiu	s7,s7,-1
9d002c28:	16e0fffa 	bnez	s7,9d002c14 <_vfprintf_cdfFnopuxX+0xe14>
9d002c2c:	24040020 	li	a0,32
9d002c30:	32c20002 	andi	v0,s6,0x2
9d002c34:	10400108 	beqz	v0,9d003058 <_vfprintf_cdfFnopuxX+0x1258>
9d002c38:	32d60001 	andi	s6,s6,0x1
9d002c3c:	16c00002 	bnez	s6,9d002c48 <_vfprintf_cdfFnopuxX+0xe48>
9d002c40:	2404002d 	li	a0,45
9d002c44:	2404002b 	li	a0,43
9d002c48:	0f40214f 	jal	9d00853c <.LFE0>
9d002c4c:	02402821 	move	a1,s2
9d002c50:	2403ffff 	li	v1,-1
9d002c54:	5443ff1b 	bnel	v0,v1,9d0028c4 <_vfprintf_cdfFnopuxX+0xac4>
9d002c58:	26100001 	addiu	s0,s0,1
9d002c5c:	0b400a32 	j	9d0028c8 <_vfprintf_cdfFnopuxX+0xac8>
9d002c60:	3c049d01 	lui	a0,0x9d01
9d002c64:	144000e2 	bnez	v0,9d002ff0 <_vfprintf_cdfFnopuxX+0x11f0>
9d002c68:	30650008 	andi	a1,v1,0x8
9d002c6c:	30640008 	andi	a0,v1,0x8
9d002c70:	afa40034 	sw	a0,52(sp)
9d002c74:	30620002 	andi	v0,v1,0x2
9d002c78:	104000d9 	beqz	v0,9d002fe0 <_vfprintf_cdfFnopuxX+0x11e0>
9d002c7c:	30620001 	andi	v0,v1,0x1
9d002c80:	14400002 	bnez	v0,9d002c8c <_vfprintf_cdfFnopuxX+0xe8c>
9d002c84:	2404002d 	li	a0,45
9d002c88:	2404002b 	li	a0,43
9d002c8c:	02402821 	move	a1,s2
9d002c90:	0f40214f 	jal	9d00853c <.LFE0>
9d002c94:	afa3003c 	sw	v1,60(sp)
9d002c98:	2404ffff 	li	a0,-1
9d002c9c:	1044006c 	beq	v0,a0,9d002e50 <_vfprintf_cdfFnopuxX+0x1050>
9d002ca0:	8fa3003c 	lw	v1,60(sp)
9d002ca4:	0b400b94 	j	9d002e50 <_vfprintf_cdfFnopuxX+0x1050>
9d002ca8:	26100001 	addiu	s0,s0,1
9d002cac:	0b400a0f 	j	9d00283c <_vfprintf_cdfFnopuxX+0xa3c>
9d002cb0:	a3a50010 	sb	a1,16(sp)
9d002cb4:	12e20045 	beq	s7,v0,9d002dcc <_vfprintf_cdfFnopuxX+0xfcc>
9d002cb8:	240200c0 	li	v0,192
9d002cbc:	12e2fdfb 	beq	s7,v0,9d0024ac <_vfprintf_cdfFnopuxX+0x6ac>
9d002cc0:	83a20010 	lb	v0,16(sp)
9d002cc4:	0b400941 	j	9d002504 <_vfprintf_cdfFnopuxX+0x704>
9d002cc8:	0053202a 	slt	a0,v0,s3
9d002ccc:	02a02021 	move	a0,s5
9d002cd0:	0f402577 	jal	9d0095dc <.LFE0>
9d002cd4:	27a50018 	addiu	a1,sp,24
9d002cd8:	8fa20018 	lw	v0,24(sp)
9d002cdc:	3c046666 	lui	a0,0x6666
9d002ce0:	2442ffff 	addiu	v0,v0,-1
9d002ce4:	00021840 	sll	v1,v0,0x1
9d002ce8:	00621021 	addu	v0,v1,v0
9d002cec:	24846667 	addiu	a0,a0,26215
9d002cf0:	00440018 	mult	v0,a0
9d002cf4:	000217c3 	sra	v0,v0,0x1f
9d002cf8:	00002010 	mfhi	a0
9d002cfc:	00042083 	sra	a0,a0,0x2
9d002d00:	0082f023 	subu	s8,a0,v0
9d002d04:	07c20001 	bltzl	s8,9d002d0c <_vfprintf_cdfFnopuxX+0xf0c>
9d002d08:	27deffff 	addiu	s8,s8,-1
9d002d0c:	001e2023 	negu	a0,s8
9d002d10:	0f401c77 	jal	9d0071dc <scale>
9d002d14:	7c042420 	seb	a0,a0
9d002d18:	00402021 	move	a0,v0
9d002d1c:	0f401fb6 	jal	9d007ed8 <__mulsf3>
9d002d20:	02a02821 	move	a1,s5
9d002d24:	afa20030 	sw	v0,48(sp)
9d002d28:	3c029d01 	lui	v0,0x9d01
9d002d2c:	8c458fe0 	lw	a1,-28704(v0)
9d002d30:	0f402506 	jal	9d009418 <__eqsf2>
9d002d34:	8fa40030 	lw	a0,48(sp)
9d002d38:	044100cb 	bgez	v0,9d003068 <_vfprintf_cdfFnopuxX+0x1268>
9d002d3c:	3c029d01 	lui	v0,0x9d01
9d002d40:	0b4008b1 	j	9d0022c4 <_vfprintf_cdfFnopuxX+0x4c4>
9d002d44:	27deffff 	addiu	s8,s8,-1
9d002d48:	8fa70070 	lw	a3,112(sp)
9d002d4c:	26310001 	addiu	s1,s1,1
9d002d50:	8cf30000 	lw	s3,0(a3)
9d002d54:	24e70004 	addiu	a3,a3,4
9d002d58:	82220000 	lb	v0,0(s1)
9d002d5c:	0b4007c7 	j	9d001f1c <_vfprintf_cdfFnopuxX+0x11c>
9d002d60:	afa70070 	sw	a3,112(sp)
9d002d64:	24020001 	li	v0,1
9d002d68:	13c000fe 	beqz	s8,9d003164 <_vfprintf_cdfFnopuxX+0x1364>
9d002d6c:	a3a20010 	sb	v0,16(sp)
9d002d70:	24080002 	li	t0,2
9d002d74:	24020002 	li	v0,2
9d002d78:	24040040 	li	a0,64
9d002d7c:	00002821 	move	a1,zero
9d002d80:	0b400b68 	j	9d002da0 <_vfprintf_cdfFnopuxX+0xfa0>
9d002d84:	24070015 	li	a3,21
9d002d88:	000530c0 	sll	a2,a1,0x3
9d002d8c:	000440c0 	sll	t0,a0,0x3
9d002d90:	01263025 	or	a2,t1,a2
9d002d94:	01002021 	move	a0,t0
9d002d98:	00c02821 	move	a1,a2
9d002d9c:	00404021 	move	t0,v0
9d002da0:	03c5302b 	sltu	a2,s8,a1
9d002da4:	54c000e0 	bnezl	a2,9d003128 <_vfprintf_cdfFnopuxX+0x1328>
9d002da8:	a3a80010 	sb	t0,16(sp)
9d002dac:	13c500db 	beq	s8,a1,9d00311c <_vfprintf_cdfFnopuxX+0x131c>
9d002db0:	02a4302b 	sltu	a2,s5,a0
9d002db4:	24420001 	addiu	v0,v0,1
9d002db8:	7c021420 	seb	v0,v0
9d002dbc:	1447fff2 	bne	v0,a3,9d002d88 <_vfprintf_cdfFnopuxX+0xf88>
9d002dc0:	00044f42 	srl	t1,a0,0x1d
9d002dc4:	0b400940 	j	9d002500 <_vfprintf_cdfFnopuxX+0x700>
9d002dc8:	a3a20010 	sb	v0,16(sp)
9d002dcc:	24020001 	li	v0,1
9d002dd0:	13c000e9 	beqz	s8,9d003178 <_vfprintf_cdfFnopuxX+0x1378>
9d002dd4:	a3a20010 	sb	v0,16(sp)
9d002dd8:	24020002 	li	v0,2
9d002ddc:	24070002 	li	a3,2
9d002de0:	24040100 	li	a0,256
9d002de4:	00002821 	move	a1,zero
9d002de8:	0b400b82 	j	9d002e08 <_vfprintf_cdfFnopuxX+0x1008>
9d002dec:	24080010 	li	t0,16
9d002df0:	00053100 	sll	a2,a1,0x4
9d002df4:	00043900 	sll	a3,a0,0x4
9d002df8:	01263025 	or	a2,t1,a2
9d002dfc:	00e02021 	move	a0,a3
9d002e00:	00c02821 	move	a1,a2
9d002e04:	00403821 	move	a3,v0
9d002e08:	03c5302b 	sltu	a2,s8,a1
9d002e0c:	54c0fdbc 	bnezl	a2,9d002500 <_vfprintf_cdfFnopuxX+0x700>
9d002e10:	a3a20010 	sb	v0,16(sp)
9d002e14:	13c500c6 	beq	s8,a1,9d003130 <_vfprintf_cdfFnopuxX+0x1330>
9d002e18:	02a4302b 	sltu	a2,s5,a0
9d002e1c:	24e20001 	addiu	v0,a3,1
9d002e20:	7c021420 	seb	v0,v0
9d002e24:	1448fff2 	bne	v0,t0,9d002df0 <_vfprintf_cdfFnopuxX+0xff0>
9d002e28:	00044f02 	srl	t1,a0,0x1c
9d002e2c:	0b400940 	j	9d002500 <_vfprintf_cdfFnopuxX+0x700>
9d002e30:	a3a80010 	sb	t0,16(sp)
9d002e34:	1440fdd1 	bnez	v0,9d00257c <_vfprintf_cdfFnopuxX+0x77c>
9d002e38:	24040020 	li	a0,32
9d002e3c:	8fa20020 	lw	v0,32(sp)
9d002e40:	5440fdd8 	bnezl	v0,9d0025a4 <_vfprintf_cdfFnopuxX+0x7a4>
9d002e44:	2414ffff 	li	s4,-1
9d002e48:	30640008 	andi	a0,v1,0x8
9d002e4c:	afa40034 	sw	a0,52(sp)
9d002e50:	2673ffff 	addiu	s3,s3,-1
9d002e54:	3c029d01 	lui	v0,0x9d01
9d002e58:	001320c0 	sll	a0,s3,0x3
9d002e5c:	24568f40 	addiu	s6,v0,-28864
9d002e60:	02c4b021 	addu	s6,s6,a0
9d002e64:	00131040 	sll	v0,s3,0x1
9d002e68:	001e2040 	sll	a0,s8,0x1
9d002e6c:	2ae50041 	slti	a1,s7,65
9d002e70:	30630020 	andi	v1,v1,0x20
9d002e74:	0013a080 	sll	s4,s3,0x2
9d002e78:	afa40028 	sw	a0,40(sp)
9d002e7c:	00539821 	addu	s3,v0,s3
9d002e80:	afa50024 	sw	a1,36(sp)
9d002e84:	0b400bba 	j	9d002ee8 <_vfprintf_cdfFnopuxX+0x10e8>
9d002e88:	afa3002c 	sw	v1,44(sp)
9d002e8c:	16e0000e 	bnez	s7,9d002ec8 <_vfprintf_cdfFnopuxX+0x10c8>
9d002e90:	83a40010 	lb	a0,16(sp)
9d002e94:	8ec60000 	lw	a2,0(s6)
9d002e98:	8ec70004 	lw	a3,4(s6)
9d002e9c:	02a02021 	move	a0,s5
9d002ea0:	0f4014bb 	jal	9d0052ec <__udivdi3>
9d002ea4:	03c02821 	move	a1,s8
9d002ea8:	00402021 	move	a0,v0
9d002eac:	00602821 	move	a1,v1
9d002eb0:	2406000a 	li	a2,10
9d002eb4:	0f4016e8 	jal	9d005ba0 <__umoddi3>
9d002eb8:	00003821 	move	a3,zero
9d002ebc:	24420030 	addiu	v0,v0,48
9d002ec0:	7c022420 	seb	a0,v0
9d002ec4:	a3a40010 	sb	a0,16(sp)
9d002ec8:	0f40214f 	jal	9d00853c <.LFE0>
9d002ecc:	02402821 	move	a1,s2
9d002ed0:	2403ffff 	li	v1,-1
9d002ed4:	54430001 	bnel	v0,v1,9d002edc <_vfprintf_cdfFnopuxX+0x10dc>
9d002ed8:	26100001 	addiu	s0,s0,1
9d002edc:	26d6fff8 	addiu	s6,s6,-8
9d002ee0:	2694fffc 	addiu	s4,s4,-4
9d002ee4:	2673fffd 	addiu	s3,s3,-3
9d002ee8:	2402fffd 	li	v0,-3
9d002eec:	1262002b 	beq	s3,v0,9d002f9c <_vfprintf_cdfFnopuxX+0x119c>
9d002ef0:	24020040 	li	v0,64
9d002ef4:	12e20009 	beq	s7,v0,9d002f1c <_vfprintf_cdfFnopuxX+0x111c>
9d002ef8:	8fa70024 	lw	a3,36(sp)
9d002efc:	14e0ffe3 	bnez	a3,9d002e8c <_vfprintf_cdfFnopuxX+0x108c>
9d002f00:	24020080 	li	v0,128
9d002f04:	12e20011 	beq	s7,v0,9d002f4c <_vfprintf_cdfFnopuxX+0x114c>
9d002f08:	240200c0 	li	v0,192
9d002f0c:	12e2ffe1 	beq	s7,v0,9d002e94 <_vfprintf_cdfFnopuxX+0x1094>
9d002f10:	83a40010 	lb	a0,16(sp)
9d002f14:	0b400bb2 	j	9d002ec8 <_vfprintf_cdfFnopuxX+0x10c8>
9d002f18:	00000000 	nop
9d002f1c:	8fa30028 	lw	v1,40(sp)
9d002f20:	00131027 	nor	v0,zero,s3
9d002f24:	00431004 	sllv	v0,v1,v0
9d002f28:	02752006 	srlv	a0,s5,s3
9d002f2c:	00442025 	or	a0,v0,a0
9d002f30:	32630020 	andi	v1,s3,0x20
9d002f34:	027e1006 	srlv	v0,s8,s3
9d002f38:	0043200b 	movn	a0,v0,v1
9d002f3c:	30840007 	andi	a0,a0,0x7
9d002f40:	24840030 	addiu	a0,a0,48
9d002f44:	0b400bb2 	j	9d002ec8 <_vfprintf_cdfFnopuxX+0x10c8>
9d002f48:	a3a40010 	sb	a0,16(sp)
9d002f4c:	8fa2002c 	lw	v0,44(sp)
9d002f50:	50400010 	beqzl	v0,9d002f94 <_vfprintf_cdfFnopuxX+0x1194>
9d002f54:	3c059d01 	lui	a1,0x9d01
9d002f58:	3c049d01 	lui	a0,0x9d01
9d002f5c:	24838f18 	addiu	v1,a0,-28904
9d002f60:	8fa70028 	lw	a3,40(sp)
9d002f64:	00142027 	nor	a0,zero,s4
9d002f68:	00872004 	sllv	a0,a3,a0
9d002f6c:	02951006 	srlv	v0,s5,s4
9d002f70:	00821025 	or	v0,a0,v0
9d002f74:	32850020 	andi	a1,s4,0x20
9d002f78:	029e2006 	srlv	a0,s8,s4
9d002f7c:	0085100b 	movn	v0,a0,a1
9d002f80:	3042000f 	andi	v0,v0,0xf
9d002f84:	00621021 	addu	v0,v1,v0
9d002f88:	80440000 	lb	a0,0(v0)
9d002f8c:	0b400bb2 	j	9d002ec8 <_vfprintf_cdfFnopuxX+0x10c8>
9d002f90:	a3a40010 	sb	a0,16(sp)
9d002f94:	0b400bd8 	j	9d002f60 <_vfprintf_cdfFnopuxX+0x1160>
9d002f98:	24a38f2c 	addiu	v1,a1,-28884
9d002f9c:	8fa40034 	lw	a0,52(sp)
9d002fa0:	5080fba9 	beqzl	a0,9d001e48 <_vfprintf_cdfFnopuxX+0x48>
9d002fa4:	82240000 	lb	a0,0(s1)
9d002fa8:	8fa50020 	lw	a1,32(sp)
9d002fac:	18a0fba5 	blez	a1,9d001e44 <_vfprintf_cdfFnopuxX+0x44>
9d002fb0:	2413ffff 	li	s3,-1
9d002fb4:	24040020 	li	a0,32
9d002fb8:	0f40214f 	jal	9d00853c <.LFE0>
9d002fbc:	02402821 	move	a1,s2
9d002fc0:	54530001 	bnel	v0,s3,9d002fc8 <_vfprintf_cdfFnopuxX+0x11c8>
9d002fc4:	26100001 	addiu	s0,s0,1
9d002fc8:	8fa70020 	lw	a3,32(sp)
9d002fcc:	24e7ffff 	addiu	a3,a3,-1
9d002fd0:	14e0fff8 	bnez	a3,9d002fb4 <_vfprintf_cdfFnopuxX+0x11b4>
9d002fd4:	afa70020 	sw	a3,32(sp)
9d002fd8:	0b400792 	j	9d001e48 <_vfprintf_cdfFnopuxX+0x48>
9d002fdc:	82240000 	lb	a0,0(s1)
9d002fe0:	5040ff9c 	beqzl	v0,9d002e54 <_vfprintf_cdfFnopuxX+0x1054>
9d002fe4:	2673ffff 	addiu	s3,s3,-1
9d002fe8:	0b400b23 	j	9d002c8c <_vfprintf_cdfFnopuxX+0xe8c>
9d002fec:	24040020 	li	a0,32
9d002ff0:	14a0ff20 	bnez	a1,9d002c74 <_vfprintf_cdfFnopuxX+0xe74>
9d002ff4:	afa50034 	sw	a1,52(sp)
9d002ff8:	2414ffff 	li	s4,-1
9d002ffc:	24040020 	li	a0,32
9d003000:	02402821 	move	a1,s2
9d003004:	0f40214f 	jal	9d00853c <.LFE0>
9d003008:	afa3003c 	sw	v1,60(sp)
9d00300c:	10540002 	beq	v0,s4,9d003018 <_vfprintf_cdfFnopuxX+0x1218>
9d003010:	8fa3003c 	lw	v1,60(sp)
9d003014:	26100001 	addiu	s0,s0,1
9d003018:	8fa70020 	lw	a3,32(sp)
9d00301c:	24e7ffff 	addiu	a3,a3,-1
9d003020:	14e0fff6 	bnez	a3,9d002ffc <_vfprintf_cdfFnopuxX+0x11fc>
9d003024:	afa70020 	sw	a3,32(sp)
9d003028:	0b400b1e 	j	9d002c78 <_vfprintf_cdfFnopuxX+0xe78>
9d00302c:	30620002 	andi	v0,v1,0x2
9d003030:	1040fe18 	beqz	v0,9d002894 <_vfprintf_cdfFnopuxX+0xa94>
9d003034:	24040020 	li	a0,32
9d003038:	0b400a20 	j	9d002880 <_vfprintf_cdfFnopuxX+0xa80>
9d00303c:	00000000 	nop
9d003040:	a3a20010 	sb	v0,16(sp)
9d003044:	1440fe50 	bnez	v0,9d002988 <_vfprintf_cdfFnopuxX+0xb88>
9d003048:	02629823 	subu	s3,s3,v0
9d00304c:	2402ffff 	li	v0,-1
9d003050:	0b400a98 	j	9d002a60 <_vfprintf_cdfFnopuxX+0xc60>
9d003054:	a3a20010 	sb	v0,16(sp)
9d003058:	52c0fe1b 	beqzl	s6,9d0028c8 <_vfprintf_cdfFnopuxX+0xac8>
9d00305c:	3c049d01 	lui	a0,0x9d01
9d003060:	0b400b12 	j	9d002c48 <_vfprintf_cdfFnopuxX+0xe48>
9d003064:	24040020 	li	a0,32
9d003068:	8c448fe4 	lw	a0,-28700(v0)
9d00306c:	0f402506 	jal	9d009418 <__eqsf2>
9d003070:	8fa50030 	lw	a1,48(sp)
9d003074:	5840fc93 	blezl	v0,9d0022c4 <_vfprintf_cdfFnopuxX+0x4c4>
9d003078:	27de0001 	addiu	s8,s8,1
9d00307c:	0b4008b2 	j	9d0022c8 <_vfprintf_cdfFnopuxX+0x4c8>
9d003080:	2a620019 	slti	v0,s3,25
9d003084:	2402fff8 	li	v0,-8
9d003088:	24850007 	addiu	a1,a0,7
9d00308c:	00a22824 	and	a1,a1,v0
9d003090:	8ca40000 	lw	a0,0(a1)
9d003094:	8ca20004 	lw	v0,4(a1)
9d003098:	24a50008 	addiu	a1,a1,8
9d00309c:	afa50070 	sw	a1,112(sp)
9d0030a0:	0080a821 	move	s5,a0
9d0030a4:	0b40091a 	j	9d002468 <_vfprintf_cdfFnopuxX+0x668>
9d0030a8:	0040f021 	move	s8,v0
9d0030ac:	8fa20070 	lw	v0,112(sp)
9d0030b0:	24440007 	addiu	a0,v0,7
9d0030b4:	2402fff8 	li	v0,-8
9d0030b8:	00821024 	and	v0,a0,v0
9d0030bc:	24440008 	addiu	a0,v0,8
9d0030c0:	afa40070 	sw	a0,112(sp)
9d0030c4:	8c550000 	lw	s5,0(v0)
9d0030c8:	0b400920 	j	9d002480 <_vfprintf_cdfFnopuxX+0x680>
9d0030cc:	8c5e0004 	lw	s8,4(v0)
9d0030d0:	244298f0 	addiu	v0,v0,-26384
9d0030d4:	0017b880 	sll	s7,s7,0x2
9d0030d8:	02e2b821 	addu	s7,s7,v0
9d0030dc:	3c029d01 	lui	v0,0x9d01
9d0030e0:	8ee40000 	lw	a0,0(s7)
9d0030e4:	0f401fb6 	jal	9d007ed8 <__mulsf3>
9d0030e8:	8c458fe8 	lw	a1,-28696(v0)
9d0030ec:	0b4008ed 	j	9d0023b4 <_vfprintf_cdfFnopuxX+0x5b4>
9d0030f0:	02a02021 	move	a0,s5
9d0030f4:	3c159d01 	lui	s5,0x9d01
9d0030f8:	26b58f10 	addiu	s5,s5,-28912
9d0030fc:	0b400990 	j	9d002640 <_vfprintf_cdfFnopuxX+0x840>
9d003100:	02a02021 	move	a0,s5
9d003104:	02a5282b 	sltu	a1,s5,a1
9d003108:	50a0fcf9 	beqzl	a1,9d0024f0 <_vfprintf_cdfFnopuxX+0x6f0>
9d00310c:	24420001 	addiu	v0,v0,1
9d003110:	a3a70010 	sb	a3,16(sp)
9d003114:	0b400940 	j	9d002500 <_vfprintf_cdfFnopuxX+0x700>
9d003118:	00e01021 	move	v0,a3
9d00311c:	50c0ff26 	beqzl	a2,9d002db8 <_vfprintf_cdfFnopuxX+0xfb8>
9d003120:	24420001 	addiu	v0,v0,1
9d003124:	a3a80010 	sb	t0,16(sp)
9d003128:	0b400940 	j	9d002500 <_vfprintf_cdfFnopuxX+0x700>
9d00312c:	01001021 	move	v0,t0
9d003130:	50c0ff3b 	beqzl	a2,9d002e20 <_vfprintf_cdfFnopuxX+0x1020>
9d003134:	24e20001 	addiu	v0,a3,1
9d003138:	0b400940 	j	9d002500 <_vfprintf_cdfFnopuxX+0x700>
9d00313c:	a3a20010 	sb	v0,16(sp)
9d003140:	0b400a0f 	j	9d00283c <_vfprintf_cdfFnopuxX+0xa3c>
9d003144:	24080001 	li	t0,1
9d003148:	0b4007ce 	j	9d001f38 <_vfprintf_cdfFnopuxX+0x138>
9d00314c:	0000b021 	move	s6,zero
9d003150:	2ea2000a 	sltiu	v0,s5,10
9d003154:	1040fcd9 	beqz	v0,9d0024bc <_vfprintf_cdfFnopuxX+0x6bc>
9d003158:	3c049d01 	lui	a0,0x9d01
9d00315c:	0b400940 	j	9d002500 <_vfprintf_cdfFnopuxX+0x700>
9d003160:	24020001 	li	v0,1
9d003164:	2ea20008 	sltiu	v0,s5,8
9d003168:	5040ff02 	beqzl	v0,9d002d74 <_vfprintf_cdfFnopuxX+0xf74>
9d00316c:	24080002 	li	t0,2
9d003170:	0b400940 	j	9d002500 <_vfprintf_cdfFnopuxX+0x700>
9d003174:	24020001 	li	v0,1
9d003178:	2ea20010 	sltiu	v0,s5,16
9d00317c:	5040ff17 	beqzl	v0,9d002ddc <_vfprintf_cdfFnopuxX+0xfdc>
9d003180:	24020002 	li	v0,2
9d003184:	0b400940 	j	9d002500 <_vfprintf_cdfFnopuxX+0x700>
9d003188:	24020001 	li	v0,1

Disassembly of section .text._vfscanf_cdfFnopuxX:

9d00318c <_vfscanf_cdfFnopuxX>:
9d00318c:	27bdff70 	addiu	sp,sp,-144
9d003190:	afb1006c 	sw	s1,108(sp)
9d003194:	afb00068 	sw	s0,104(sp)
9d003198:	3c119d01 	lui	s1,0x9d01
9d00319c:	3c10a000 	lui	s0,0xa000
9d0031a0:	27a20010 	addiu	v0,sp,16
9d0031a4:	afb70084 	sw	s7,132(sp)
9d0031a8:	afb5007c 	sw	s5,124(sp)
9d0031ac:	afb40078 	sw	s4,120(sp)
9d0031b0:	afb20070 	sw	s2,112(sp)
9d0031b4:	afbf008c 	sw	ra,140(sp)
9d0031b8:	afbe0088 	sw	s8,136(sp)
9d0031bc:	afb60080 	sw	s6,128(sp)
9d0031c0:	afb30074 	sw	s3,116(sp)
9d0031c4:	26318b24 	addiu	s1,s1,-29916
9d0031c8:	00a0b821 	move	s7,a1
9d0031cc:	afa60098 	sw	a2,152(sp)
9d0031d0:	ae047e84 	sw	a0,32388(s0)
9d0031d4:	00009021 	move	s2,zero
9d0031d8:	0000a821 	move	s5,zero
9d0031dc:	24140025 	li	s4,37
9d0031e0:	afa20050 	sw	v0,80(sp)
9d0031e4:	92f60000 	lbu	s6,0(s7)
9d0031e8:	12c000b5 	beqz	s6,9d0034c0 <_vfscanf_cdfFnopuxX+0x334>
9d0031ec:	02361021 	addu	v0,s1,s6
9d0031f0:	80420001 	lb	v0,1(v0)
9d0031f4:	30420088 	andi	v0,v0,0x88
9d0031f8:	144000be 	bnez	v0,9d0034f4 <_vfscanf_cdfFnopuxX+0x368>
9d0031fc:	26f70001 	addiu	s7,s7,1
9d003200:	16d400a6 	bne	s6,s4,9d00349c <_vfscanf_cdfFnopuxX+0x310>
9d003204:	24040004 	li	a0,4
9d003208:	82e30000 	lb	v1,0(s7)
9d00320c:	0000b021 	move	s6,zero
9d003210:	afa4005c 	sw	a0,92(sp)
9d003214:	afa00058 	sw	zero,88(sp)
9d003218:	24050004 	li	a1,4
9d00321c:	306300ff 	andi	v1,v1,0xff
9d003220:	2c620079 	sltiu	v0,v1,121
9d003224:	1440001d 	bnez	v0,9d00329c <_vfscanf_cdfFnopuxX+0x110>
9d003228:	26fe0001 	addiu	s8,s7,1
9d00322c:	02231021 	addu	v0,s1,v1
9d003230:	90420001 	lbu	v0,1(v0)
9d003234:	30420004 	andi	v0,v0,0x4
9d003238:	10400247 	beqz	v0,9d003b58 <_vfscanf_cdfFnopuxX+0x9cc>
9d00323c:	02e02021 	move	a0,s7
9d003240:	0f402460 	jal	9d009180 <.LFE0>
9d003244:	afa50064 	sw	a1,100(sp)
9d003248:	83c30000 	lb	v1,0(s8)
9d00324c:	3c049d01 	lui	a0,0x9d01
9d003250:	24848b24 	addiu	a0,a0,-29916
9d003254:	7c02b420 	seb	s6,v0
9d003258:	00641021 	addu	v0,v1,a0
9d00325c:	90420001 	lbu	v0,1(v0)
9d003260:	30420004 	andi	v0,v0,0x4
9d003264:	10400244 	beqz	v0,9d003b78 <_vfscanf_cdfFnopuxX+0x9ec>
9d003268:	8fa50064 	lw	a1,100(sp)
9d00326c:	03c0b821 	move	s7,s8
9d003270:	26f70001 	addiu	s7,s7,1
9d003274:	82e30000 	lb	v1,0(s7)
9d003278:	02231021 	addu	v0,s1,v1
9d00327c:	90420001 	lbu	v0,1(v0)
9d003280:	30420004 	andi	v0,v0,0x4
9d003284:	5440fffb 	bnezl	v0,9d003274 <_vfscanf_cdfFnopuxX+0xe8>
9d003288:	26f70001 	addiu	s7,s7,1
9d00328c:	306300ff 	andi	v1,v1,0xff
9d003290:	2c620079 	sltiu	v0,v1,121
9d003294:	1040ffe5 	beqz	v0,9d00322c <_vfscanf_cdfFnopuxX+0xa0>
9d003298:	26fe0001 	addiu	s8,s7,1
9d00329c:	3c049d00 	lui	a0,0x9d00
9d0032a0:	00031080 	sll	v0,v1,0x2
9d0032a4:	248432b8 	addiu	a0,a0,12984
9d0032a8:	00821021 	addu	v0,a0,v0
9d0032ac:	8c420000 	lw	v0,0(v0)
9d0032b0:	00400008 	jr	v0
9d0032b4:	00000000 	nop
9d0032b8:	9d003504 	0x9d003504
9d0032bc:	9d00322c 	0x9d00322c
9d0032c0:	9d00322c 	0x9d00322c
9d0032c4:	9d00322c 	0x9d00322c
9d0032c8:	9d00322c 	0x9d00322c
9d0032cc:	9d00322c 	0x9d00322c
9d0032d0:	9d00322c 	0x9d00322c
9d0032d4:	9d00322c 	0x9d00322c
9d0032d8:	9d00322c 	0x9d00322c
9d0032dc:	9d00322c 	0x9d00322c
9d0032e0:	9d00322c 	0x9d00322c
9d0032e4:	9d00322c 	0x9d00322c
9d0032e8:	9d00322c 	0x9d00322c
9d0032ec:	9d00322c 	0x9d00322c
9d0032f0:	9d00322c 	0x9d00322c
9d0032f4:	9d00322c 	0x9d00322c
9d0032f8:	9d00322c 	0x9d00322c
9d0032fc:	9d00322c 	0x9d00322c
9d003300:	9d00322c 	0x9d00322c
9d003304:	9d00322c 	0x9d00322c
9d003308:	9d00322c 	0x9d00322c
9d00330c:	9d00322c 	0x9d00322c
9d003310:	9d00322c 	0x9d00322c
9d003314:	9d00322c 	0x9d00322c
9d003318:	9d00322c 	0x9d00322c
9d00331c:	9d00322c 	0x9d00322c
9d003320:	9d00322c 	0x9d00322c
9d003324:	9d00322c 	0x9d00322c
9d003328:	9d00322c 	0x9d00322c
9d00332c:	9d00322c 	0x9d00322c
9d003330:	9d00322c 	0x9d00322c
9d003334:	9d00322c 	0x9d00322c
9d003338:	9d00322c 	0x9d00322c
9d00333c:	9d00322c 	0x9d00322c
9d003340:	9d00322c 	0x9d00322c
9d003344:	9d00322c 	0x9d00322c
9d003348:	9d00322c 	0x9d00322c
9d00334c:	9d00322c 	0x9d00322c
9d003350:	9d00322c 	0x9d00322c
9d003354:	9d00322c 	0x9d00322c
9d003358:	9d00322c 	0x9d00322c
9d00335c:	9d00322c 	0x9d00322c
9d003360:	9d003804 	0x9d003804
9d003364:	9d00322c 	0x9d00322c
9d003368:	9d00322c 	0x9d00322c
9d00336c:	9d00322c 	0x9d00322c
9d003370:	9d00322c 	0x9d00322c
9d003374:	9d00322c 	0x9d00322c
9d003378:	9d00322c 	0x9d00322c
9d00337c:	9d00322c 	0x9d00322c
9d003380:	9d00322c 	0x9d00322c
9d003384:	9d00322c 	0x9d00322c
9d003388:	9d00322c 	0x9d00322c
9d00338c:	9d00322c 	0x9d00322c
9d003390:	9d00322c 	0x9d00322c
9d003394:	9d00322c 	0x9d00322c
9d003398:	9d00322c 	0x9d00322c
9d00339c:	9d00322c 	0x9d00322c
9d0033a0:	9d00322c 	0x9d00322c
9d0033a4:	9d00322c 	0x9d00322c
9d0033a8:	9d00322c 	0x9d00322c
9d0033ac:	9d00322c 	0x9d00322c
9d0033b0:	9d00322c 	0x9d00322c
9d0033b4:	9d00322c 	0x9d00322c
9d0033b8:	9d00322c 	0x9d00322c
9d0033bc:	9d00322c 	0x9d00322c
9d0033c0:	9d00322c 	0x9d00322c
9d0033c4:	9d00322c 	0x9d00322c
9d0033c8:	9d00322c 	0x9d00322c
9d0033cc:	9d003898 	0x9d003898
9d0033d0:	9d00322c 	0x9d00322c
9d0033d4:	9d003898 	0x9d003898
9d0033d8:	9d00322c 	0x9d00322c
9d0033dc:	9d00322c 	0x9d00322c
9d0033e0:	9d00322c 	0x9d00322c
9d0033e4:	9d00322c 	0x9d00322c
9d0033e8:	9d00387c 	0x9d00387c
9d0033ec:	9d00322c 	0x9d00322c
9d0033f0:	9d00322c 	0x9d00322c
9d0033f4:	9d00322c 	0x9d00322c
9d0033f8:	9d00322c 	0x9d00322c
9d0033fc:	9d00322c 	0x9d00322c
9d003400:	9d00322c 	0x9d00322c
9d003404:	9d00322c 	0x9d00322c
9d003408:	9d00322c 	0x9d00322c
9d00340c:	9d00322c 	0x9d00322c
9d003410:	9d00322c 	0x9d00322c
9d003414:	9d00322c 	0x9d00322c
9d003418:	9d003868 	0x9d003868
9d00341c:	9d00322c 	0x9d00322c
9d003420:	9d00322c 	0x9d00322c
9d003424:	9d00322c 	0x9d00322c
9d003428:	9d00322c 	0x9d00322c
9d00342c:	9d00322c 	0x9d00322c
9d003430:	9d00322c 	0x9d00322c
9d003434:	9d00322c 	0x9d00322c
9d003438:	9d00322c 	0x9d00322c
9d00343c:	9d00322c 	0x9d00322c
9d003440:	9d00322c 	0x9d00322c
9d003444:	9d003820 	0x9d003820
9d003448:	9d00360c 	0x9d00360c
9d00344c:	9d003898 	0x9d003898
9d003450:	9d003898 	0x9d003898
9d003454:	9d003898 	0x9d003898
9d003458:	9d0035f8 	0x9d0035f8
9d00345c:	9d00360c 	0x9d00360c
9d003460:	9d00322c 	0x9d00322c
9d003464:	9d00322c 	0x9d00322c
9d003468:	9d00387c 	0x9d00387c
9d00346c:	9d00322c 	0x9d00322c
9d003470:	9d00322c 	0x9d00322c
9d003474:	9d003738 	0x9d003738
9d003478:	9d00322c 	0x9d00322c
9d00347c:	9d00322c 	0x9d00322c
9d003480:	9d00322c 	0x9d00322c
9d003484:	9d003550 	0x9d003550
9d003488:	9d00322c 	0x9d00322c
9d00348c:	9d00360c 	0x9d00360c
9d003490:	9d00322c 	0x9d00322c
9d003494:	9d00322c 	0x9d00322c
9d003498:	9d0037f0 	0x9d0037f0
9d00349c:	0f402287 	jal	9d008a1c <.LFE5>
9d0034a0:	8e047e84 	lw	a0,32388(s0)
9d0034a4:	52c2ff50 	beql	s6,v0,9d0031e8 <_vfscanf_cdfFnopuxX+0x5c>
9d0034a8:	92f60000 	lbu	s6,0(s7)
9d0034ac:	2403ffff 	li	v1,-1
9d0034b0:	144301a4 	bne	v0,v1,9d003b44 <_vfscanf_cdfFnopuxX+0x9b8>
9d0034b4:	3c03a000 	lui	v1,0xa000
9d0034b8:	12a00019 	beqz	s5,9d003520 <_vfscanf_cdfFnopuxX+0x394>
9d0034bc:	8fbf008c 	lw	ra,140(sp)
9d0034c0:	02a01021 	move	v0,s5
9d0034c4:	8fbf008c 	lw	ra,140(sp)
9d0034c8:	8fbe0088 	lw	s8,136(sp)
9d0034cc:	8fb70084 	lw	s7,132(sp)
9d0034d0:	8fb60080 	lw	s6,128(sp)
9d0034d4:	8fb5007c 	lw	s5,124(sp)
9d0034d8:	8fb40078 	lw	s4,120(sp)
9d0034dc:	8fb30074 	lw	s3,116(sp)
9d0034e0:	8fb20070 	lw	s2,112(sp)
9d0034e4:	8fb1006c 	lw	s1,108(sp)
9d0034e8:	8fb00068 	lw	s0,104(sp)
9d0034ec:	03e00008 	jr	ra
9d0034f0:	27bd0090 	addiu	sp,sp,144
9d0034f4:	0f402661 	jal	9d009984 <E999+0xc>
9d0034f8:	00000000 	nop
9d0034fc:	0b400c7a 	j	9d0031e8 <_vfscanf_cdfFnopuxX+0x5c>
9d003500:	92f60000 	lbu	s6,0(s7)
9d003504:	16a0ffef 	bnez	s5,9d0034c4 <_vfscanf_cdfFnopuxX+0x338>
9d003508:	02a01021 	move	v0,s5
9d00350c:	8e027e84 	lw	v0,32388(s0)
9d003510:	9442000c 	lhu	v0,12(v0)
9d003514:	30420010 	andi	v0,v0,0x10
9d003518:	104000a9 	beqz	v0,9d0037c0 <_vfscanf_cdfFnopuxX+0x634>
9d00351c:	8fbf008c 	lw	ra,140(sp)
9d003520:	2402ffff 	li	v0,-1
9d003524:	8fbe0088 	lw	s8,136(sp)
9d003528:	8fb70084 	lw	s7,132(sp)
9d00352c:	8fb60080 	lw	s6,128(sp)
9d003530:	8fb5007c 	lw	s5,124(sp)
9d003534:	8fb40078 	lw	s4,120(sp)
9d003538:	8fb30074 	lw	s3,116(sp)
9d00353c:	8fb20070 	lw	s2,112(sp)
9d003540:	8fb1006c 	lw	s1,108(sp)
9d003544:	8fb00068 	lw	s0,104(sp)
9d003548:	03e00008 	jr	ra
9d00354c:	27bd0090 	addiu	sp,sp,144
9d003550:	0f402661 	jal	9d009984 <E999+0xc>
9d003554:	00000000 	nop
9d003558:	8fa40058 	lw	a0,88(sp)
9d00355c:	10800121 	beqz	a0,9d0039e4 <_vfscanf_cdfFnopuxX+0x858>
9d003560:	8fa20098 	lw	v0,152(sp)
9d003564:	0f402287 	jal	9d008a1c <.LFE5>
9d003568:	8e047e84 	lw	a0,32388(s0)
9d00356c:	2403ffff 	li	v1,-1
9d003570:	1043ffd1 	beq	v0,v1,9d0034b8 <_vfscanf_cdfFnopuxX+0x32c>
9d003574:	00000000 	nop
9d003578:	14400012 	bnez	v0,9d0035c4 <_vfscanf_cdfFnopuxX+0x438>
9d00357c:	24430001 	addiu	v1,v0,1
9d003580:	0b400d77 	j	9d0035dc <_vfscanf_cdfFnopuxX+0x450>
9d003584:	03c0b821 	move	s7,s8
9d003588:	10620165 	beq	v1,v0,9d003b20 <_vfscanf_cdfFnopuxX+0x994>
9d00358c:	8fa30058 	lw	v1,88(sp)
9d003590:	14600003 	bnez	v1,9d0035a0 <_vfscanf_cdfFnopuxX+0x414>
9d003594:	26d6ffff 	addiu	s6,s6,-1
9d003598:	a2620000 	sb	v0,0(s3)
9d00359c:	26730001 	addiu	s3,s3,1
9d0035a0:	7c16b420 	seb	s6,s6
9d0035a4:	12c0000d 	beqz	s6,9d0035dc <_vfscanf_cdfFnopuxX+0x450>
9d0035a8:	03c0b821 	move	s7,s8
9d0035ac:	0f402287 	jal	9d008a1c <.LFE5>
9d0035b0:	8e047e84 	lw	a0,32388(s0)
9d0035b4:	24430001 	addiu	v1,v0,1
9d0035b8:	2c640002 	sltiu	a0,v1,2
9d0035bc:	14800007 	bnez	a0,9d0035dc <_vfscanf_cdfFnopuxX+0x450>
9d0035c0:	03c0b821 	move	s7,s8
9d0035c4:	02231821 	addu	v1,s1,v1
9d0035c8:	80630000 	lb	v1,0(v1)
9d0035cc:	30630088 	andi	v1,v1,0x88
9d0035d0:	5060ffed 	beqzl	v1,9d003588 <_vfscanf_cdfFnopuxX+0x3fc>
9d0035d4:	83c30000 	lb	v1,0(s8)
9d0035d8:	03c0b821 	move	s7,s8
9d0035dc:	8fa40058 	lw	a0,88(sp)
9d0035e0:	5480ff01 	bnezl	a0,9d0031e8 <_vfscanf_cdfFnopuxX+0x5c>
9d0035e4:	92f60000 	lbu	s6,0(s7)
9d0035e8:	26b50001 	addiu	s5,s5,1
9d0035ec:	32b500ff 	andi	s5,s5,0xff
9d0035f0:	0b400c79 	j	9d0031e4 <_vfscanf_cdfFnopuxX+0x58>
9d0035f4:	a2600000 	sb	zero,0(s3)
9d0035f8:	24020002 	li	v0,2
9d0035fc:	83c30000 	lb	v1,0(s8)
9d003600:	03c0b821 	move	s7,s8
9d003604:	0b400c87 	j	9d00321c <_vfscanf_cdfFnopuxX+0x90>
9d003608:	afa2005c 	sw	v0,92(sp)
9d00360c:	2402000a 	li	v0,10
9d003610:	03c0b821 	move	s7,s8
9d003614:	afa20054 	sw	v0,84(sp)
9d003618:	0f402661 	jal	9d009984 <E999+0xc>
9d00361c:	00000000 	nop
9d003620:	0f402287 	jal	9d008a1c <.LFE5>
9d003624:	8e047e84 	lw	a0,32388(s0)
9d003628:	0040f021 	move	s8,v0
9d00362c:	2402002d 	li	v0,45
9d003630:	13c2004c 	beq	s8,v0,9d003764 <_vfscanf_cdfFnopuxX+0x5d8>
9d003634:	3c02a000 	lui	v0,0xa000
9d003638:	8fa50054 	lw	a1,84(sp)
9d00363c:	03c02021 	move	a0,s8
9d003640:	02403021 	move	a2,s2
9d003644:	0f4024b6 	jal	9d0092d8 <i42+0x24>
9d003648:	afa00060 	sw	zero,96(sp)
9d00364c:	240300ff 	li	v1,255
9d003650:	10430051 	beq	v0,v1,9d003798 <_vfscanf_cdfFnopuxX+0x60c>
9d003654:	8e057e84 	lw	a1,32388(s0)
9d003658:	24020030 	li	v0,48
9d00365c:	13c200e5 	beq	s8,v0,9d0039f4 <_vfscanf_cdfFnopuxX+0x868>
9d003660:	00000000 	nop
9d003664:	00001821 	move	v1,zero
9d003668:	8fa20054 	lw	v0,84(sp)
9d00366c:	03c02021 	move	a0,s8
9d003670:	70621802 	mul	v1,v1,v0
9d003674:	00402821 	move	a1,v0
9d003678:	02403021 	move	a2,s2
9d00367c:	afa30064 	sw	v1,100(sp)
9d003680:	0f4024b6 	jal	9d0092d8 <i42+0x24>
9d003684:	26d6ffff 	addiu	s6,s6,-1
9d003688:	8fa30064 	lw	v1,100(sp)
9d00368c:	7c16b420 	seb	s6,s6
9d003690:	12c0000c 	beqz	s6,9d0036c4 <_vfscanf_cdfFnopuxX+0x538>
9d003694:	00431821 	addu	v1,v0,v1
9d003698:	8e047e84 	lw	a0,32388(s0)
9d00369c:	0f402287 	jal	9d008a1c <.LFE5>
9d0036a0:	afa30064 	sw	v1,100(sp)
9d0036a4:	8fa50054 	lw	a1,84(sp)
9d0036a8:	00402021 	move	a0,v0
9d0036ac:	02403021 	move	a2,s2
9d0036b0:	0f4024b6 	jal	9d0092d8 <i42+0x24>
9d0036b4:	0040f021 	move	s8,v0
9d0036b8:	240400ff 	li	a0,255
9d0036bc:	1444ffea 	bne	v0,a0,9d003668 <_vfscanf_cdfFnopuxX+0x4dc>
9d0036c0:	8fa30064 	lw	v1,100(sp)
9d0036c4:	8fa50054 	lw	a1,84(sp)
9d0036c8:	03c02021 	move	a0,s8
9d0036cc:	02403021 	move	a2,s2
9d0036d0:	0f4024b6 	jal	9d0092d8 <i42+0x24>
9d0036d4:	afa30064 	sw	v1,100(sp)
9d0036d8:	240400ff 	li	a0,255
9d0036dc:	104400fb 	beq	v0,a0,9d003acc <_vfscanf_cdfFnopuxX+0x940>
9d0036e0:	8fa30064 	lw	v1,100(sp)
9d0036e4:	8fa20060 	lw	v0,96(sp)
9d0036e8:	54400001 	bnezl	v0,9d0036f0 <_vfscanf_cdfFnopuxX+0x564>
9d0036ec:	00031823 	negu	v1,v1
9d0036f0:	8fa40058 	lw	a0,88(sp)
9d0036f4:	5480febc 	bnezl	a0,9d0031e8 <_vfscanf_cdfFnopuxX+0x5c>
9d0036f8:	92f60000 	lbu	s6,0(s7)
9d0036fc:	8fa4005c 	lw	a0,92(sp)
9d003700:	26b50001 	addiu	s5,s5,1
9d003704:	24020004 	li	v0,4
9d003708:	10820005 	beq	a0,v0,9d003720 <_vfscanf_cdfFnopuxX+0x594>
9d00370c:	32b500ff 	andi	s5,s5,0xff
9d003710:	8fa4005c 	lw	a0,92(sp)
9d003714:	24020002 	li	v0,2
9d003718:	108200f1 	beq	a0,v0,9d003ae0 <_vfscanf_cdfFnopuxX+0x954>
9d00371c:	8fa40098 	lw	a0,152(sp)
9d003720:	8fa40098 	lw	a0,152(sp)
9d003724:	8c820000 	lw	v0,0(a0)
9d003728:	24840004 	addiu	a0,a0,4
9d00372c:	afa40098 	sw	a0,152(sp)
9d003730:	0b400c79 	j	9d0031e4 <_vfscanf_cdfFnopuxX+0x58>
9d003734:	ac430000 	sw	v1,0(v0)
9d003738:	24030008 	li	v1,8
9d00373c:	0f402661 	jal	9d009984 <E999+0xc>
9d003740:	afa30054 	sw	v1,84(sp)
9d003744:	8e047e84 	lw	a0,32388(s0)
9d003748:	0f402287 	jal	9d008a1c <.LFE5>
9d00374c:	03c0b821 	move	s7,s8
9d003750:	0040f021 	move	s8,v0
9d003754:	2402002d 	li	v0,45
9d003758:	17c2ffb8 	bne	s8,v0,9d00363c <_vfscanf_cdfFnopuxX+0x4b0>
9d00375c:	8fa50054 	lw	a1,84(sp)
9d003760:	3c02a000 	lui	v0,0xa000
9d003764:	8c447e84 	lw	a0,32388(v0)
9d003768:	24030001 	li	v1,1
9d00376c:	0f402287 	jal	9d008a1c <.LFE5>
9d003770:	afa30060 	sw	v1,96(sp)
9d003774:	0040f021 	move	s8,v0
9d003778:	8fa50054 	lw	a1,84(sp)
9d00377c:	03c02021 	move	a0,s8
9d003780:	0f4024b6 	jal	9d0092d8 <i42+0x24>
9d003784:	02403021 	move	a2,s2
9d003788:	240300ff 	li	v1,255
9d00378c:	1443ffb3 	bne	v0,v1,9d00365c <_vfscanf_cdfFnopuxX+0x4d0>
9d003790:	24020030 	li	v0,48
9d003794:	8e057e84 	lw	a1,32388(s0)
9d003798:	0f4025b9 	jal	9d0096e4 <ungetc>
9d00379c:	03c02021 	move	a0,s8
9d0037a0:	16a0ff48 	bnez	s5,9d0034c4 <_vfscanf_cdfFnopuxX+0x338>
9d0037a4:	02a01021 	move	v0,s5
9d0037a8:	3c02a000 	lui	v0,0xa000
9d0037ac:	8c427e84 	lw	v0,32388(v0)
9d0037b0:	9442000c 	lhu	v0,12(v0)
9d0037b4:	30420010 	andi	v0,v0,0x10
9d0037b8:	1440ff59 	bnez	v0,9d003520 <_vfscanf_cdfFnopuxX+0x394>
9d0037bc:	8fbf008c 	lw	ra,140(sp)
9d0037c0:	00001021 	move	v0,zero
9d0037c4:	8fbe0088 	lw	s8,136(sp)
9d0037c8:	8fb70084 	lw	s7,132(sp)
9d0037cc:	8fb60080 	lw	s6,128(sp)
9d0037d0:	8fb5007c 	lw	s5,124(sp)
9d0037d4:	8fb40078 	lw	s4,120(sp)
9d0037d8:	8fb30074 	lw	s3,116(sp)
9d0037dc:	8fb20070 	lw	s2,112(sp)
9d0037e0:	8fb1006c 	lw	s1,108(sp)
9d0037e4:	8fb00068 	lw	s0,104(sp)
9d0037e8:	03e00008 	jr	ra
9d0037ec:	27bd0090 	addiu	sp,sp,144
9d0037f0:	24020010 	li	v0,16
9d0037f4:	03c0b821 	move	s7,s8
9d0037f8:	afa20054 	sw	v0,84(sp)
9d0037fc:	0b400d86 	j	9d003618 <_vfscanf_cdfFnopuxX+0x48c>
9d003800:	00009021 	move	s2,zero
9d003804:	8fa30058 	lw	v1,88(sp)
9d003808:	24620001 	addiu	v0,v1,1
9d00380c:	304200ff 	andi	v0,v0,0xff
9d003810:	afa20058 	sw	v0,88(sp)
9d003814:	83c30000 	lb	v1,0(s8)
9d003818:	0b400c87 	j	9d00321c <_vfscanf_cdfFnopuxX+0x90>
9d00381c:	03c0b821 	move	s7,s8
9d003820:	8fa20058 	lw	v0,88(sp)
9d003824:	10400069 	beqz	v0,9d0039cc <_vfscanf_cdfFnopuxX+0x840>
9d003828:	8fa30098 	lw	v1,152(sp)
9d00382c:	2417ffff 	li	s7,-1
9d003830:	0f402287 	jal	9d008a1c <.LFE5>
9d003834:	8e047e84 	lw	a0,32388(s0)
9d003838:	1057ff1f 	beq	v0,s7,9d0034b8 <_vfscanf_cdfFnopuxX+0x32c>
9d00383c:	00000000 	nop
9d003840:	8fa40058 	lw	a0,88(sp)
9d003844:	14800003 	bnez	a0,9d003854 <_vfscanf_cdfFnopuxX+0x6c8>
9d003848:	26d6ffff 	addiu	s6,s6,-1
9d00384c:	a2620000 	sb	v0,0(s3)
9d003850:	26730001 	addiu	s3,s3,1
9d003854:	7c16b420 	seb	s6,s6
9d003858:	1ec0fff5 	bgtz	s6,9d003830 <_vfscanf_cdfFnopuxX+0x6a4>
9d00385c:	00000000 	nop
9d003860:	0b400c79 	j	9d0031e4 <_vfscanf_cdfFnopuxX+0x58>
9d003864:	03c0b821 	move	s7,s8
9d003868:	24030010 	li	v1,16
9d00386c:	03c0b821 	move	s7,s8
9d003870:	afa30054 	sw	v1,84(sp)
9d003874:	0b400d86 	j	9d003618 <_vfscanf_cdfFnopuxX+0x48c>
9d003878:	24120001 	li	s2,1
9d00387c:	8fa3005c 	lw	v1,92(sp)
9d003880:	1065ffe4 	beq	v1,a1,9d003814 <_vfscanf_cdfFnopuxX+0x688>
9d003884:	24040008 	li	a0,8
9d003888:	83c30000 	lb	v1,0(s8)
9d00388c:	03c0b821 	move	s7,s8
9d003890:	0b400c87 	j	9d00321c <_vfscanf_cdfFnopuxX+0x90>
9d003894:	afa4005c 	sw	a0,92(sp)
9d003898:	0f402661 	jal	9d009984 <E999+0xc>
9d00389c:	00000000 	nop
9d0038a0:	52c00001 	beqzl	s6,9d0038a8 <_vfscanf_cdfFnopuxX+0x71c>
9d0038a4:	2416003b 	li	s6,59
9d0038a8:	0f402287 	jal	9d008a1c <.LFE5>
9d0038ac:	8e047e84 	lw	a0,32388(s0)
9d0038b0:	2403002d 	li	v1,45
9d0038b4:	1043009c 	beq	v0,v1,9d003b28 <_vfscanf_cdfFnopuxX+0x99c>
9d0038b8:	3c03a000 	lui	v1,0xa000
9d0038bc:	27b70010 	addiu	s7,sp,16
9d0038c0:	26f70001 	addiu	s7,s7,1
9d0038c4:	0b400e40 	j	9d003900 <_vfscanf_cdfFnopuxX+0x774>
9d0038c8:	afa00054 	sw	zero,84(sp)
9d0038cc:	02221821 	addu	v1,s1,v0
9d0038d0:	90630001 	lbu	v1,1(v1)
9d0038d4:	30630004 	andi	v1,v1,0x4
9d0038d8:	1060000c 	beqz	v1,9d00390c <_vfscanf_cdfFnopuxX+0x780>
9d0038dc:	8fa40054 	lw	a0,84(sp)
9d0038e0:	2404002e 	li	a0,46
9d0038e4:	1044000f 	beq	v0,a0,9d003924 <_vfscanf_cdfFnopuxX+0x798>
9d0038e8:	a2e2ffff 	sb	v0,-1(s7)
9d0038ec:	8e047e84 	lw	a0,32388(s0)
9d0038f0:	26d6ffff 	addiu	s6,s6,-1
9d0038f4:	0f402287 	jal	9d008a1c <.LFE5>
9d0038f8:	26f70001 	addiu	s7,s7,1
9d0038fc:	7c16b420 	seb	s6,s6
9d003900:	16c0fff2 	bnez	s6,9d0038cc <_vfscanf_cdfFnopuxX+0x740>
9d003904:	26f3ffff 	addiu	s3,s7,-1
9d003908:	8fa40054 	lw	a0,84(sp)
9d00390c:	1480000a 	bnez	a0,9d003938 <_vfscanf_cdfFnopuxX+0x7ac>
9d003910:	2403002e 	li	v1,46
9d003914:	14430008 	bne	v0,v1,9d003938 <_vfscanf_cdfFnopuxX+0x7ac>
9d003918:	00000000 	nop
9d00391c:	2402002e 	li	v0,46
9d003920:	a2e2ffff 	sb	v0,-1(s7)
9d003924:	8fa30054 	lw	v1,84(sp)
9d003928:	24620001 	addiu	v0,v1,1
9d00392c:	304200ff 	andi	v0,v0,0xff
9d003930:	0b400e3b 	j	9d0038ec <_vfscanf_cdfFnopuxX+0x760>
9d003934:	afa20054 	sw	v0,84(sp)
9d003938:	12c00007 	beqz	s6,9d003958 <_vfscanf_cdfFnopuxX+0x7cc>
9d00393c:	2403ffff 	li	v1,-1
9d003940:	24030065 	li	v1,101
9d003944:	10430038 	beq	v0,v1,9d003a28 <_vfscanf_cdfFnopuxX+0x89c>
9d003948:	24030045 	li	v1,69
9d00394c:	50430037 	beql	v0,v1,9d003a2c <_vfscanf_cdfFnopuxX+0x8a0>
9d003950:	a2620000 	sb	v0,0(s3)
9d003954:	2403ffff 	li	v1,-1
9d003958:	10430004 	beq	v0,v1,9d00396c <_vfscanf_cdfFnopuxX+0x7e0>
9d00395c:	a2600000 	sb	zero,0(s3)
9d003960:	8e057e84 	lw	a1,32388(s0)
9d003964:	0f4025b9 	jal	9d0096e4 <ungetc>
9d003968:	00402021 	move	a0,v0
9d00396c:	8fa40050 	lw	a0,80(sp)
9d003970:	1093fee4 	beq	a0,s3,9d003504 <_vfscanf_cdfFnopuxX+0x378>
9d003974:	8fa20058 	lw	v0,88(sp)
9d003978:	1440fe1a 	bnez	v0,9d0031e4 <_vfscanf_cdfFnopuxX+0x58>
9d00397c:	03c0b821 	move	s7,s8
9d003980:	8fa3005c 	lw	v1,92(sp)
9d003984:	26b50001 	addiu	s5,s5,1
9d003988:	2c620005 	sltiu	v0,v1,5
9d00398c:	14400059 	bnez	v0,9d003af4 <_vfscanf_cdfFnopuxX+0x968>
9d003990:	32b500ff 	andi	s5,s5,0xff
9d003994:	8fa20098 	lw	v0,152(sp)
9d003998:	00002821 	move	a1,zero
9d00399c:	27a40010 	addiu	a0,sp,16
9d0039a0:	0f402764 	jal	9d009d90 <.LFE1>
9d0039a4:	8c560000 	lw	s6,0(v0)
9d0039a8:	8fa30098 	lw	v1,152(sp)
9d0039ac:	00402021 	move	a0,v0
9d0039b0:	0f40248b 	jal	9d00922c <.LFE0>
9d0039b4:	24770004 	addiu	s7,v1,4
9d0039b8:	aec20000 	sw	v0,0(s6)
9d0039bc:	aec30004 	sw	v1,4(s6)
9d0039c0:	afb70098 	sw	s7,152(sp)
9d0039c4:	0b400c79 	j	9d0031e4 <_vfscanf_cdfFnopuxX+0x58>
9d0039c8:	03c0b821 	move	s7,s8
9d0039cc:	26b50001 	addiu	s5,s5,1
9d0039d0:	8c730000 	lw	s3,0(v1)
9d0039d4:	24630004 	addiu	v1,v1,4
9d0039d8:	32b500ff 	andi	s5,s5,0xff
9d0039dc:	0b400e0b 	j	9d00382c <_vfscanf_cdfFnopuxX+0x6a0>
9d0039e0:	afa30098 	sw	v1,152(sp)
9d0039e4:	8c530000 	lw	s3,0(v0)
9d0039e8:	24420004 	addiu	v0,v0,4
9d0039ec:	0b400d59 	j	9d003564 <_vfscanf_cdfFnopuxX+0x3d8>
9d0039f0:	afa20098 	sw	v0,152(sp)
9d0039f4:	0f402287 	jal	9d008a1c <.LFE5>
9d0039f8:	8e047e84 	lw	a0,32388(s0)
9d0039fc:	24030078 	li	v1,120
9d003a00:	1043002c 	beq	v0,v1,9d003ab4 <_vfscanf_cdfFnopuxX+0x928>
9d003a04:	24030058 	li	v1,88
9d003a08:	1443002c 	bne	v0,v1,9d003abc <_vfscanf_cdfFnopuxX+0x930>
9d003a0c:	8e057e84 	lw	a1,32388(s0)
9d003a10:	1240002a 	beqz	s2,9d003abc <_vfscanf_cdfFnopuxX+0x930>
9d003a14:	00000000 	nop
9d003a18:	0f402287 	jal	9d008a1c <.LFE5>
9d003a1c:	8e047e84 	lw	a0,32388(s0)
9d003a20:	0b400d99 	j	9d003664 <_vfscanf_cdfFnopuxX+0x4d8>
9d003a24:	0040f021 	move	s8,v0
9d003a28:	a2620000 	sb	v0,0(s3)
9d003a2c:	8e047e84 	lw	a0,32388(s0)
9d003a30:	26d6ffff 	addiu	s6,s6,-1
9d003a34:	7c16b420 	seb	s6,s6
9d003a38:	0f402287 	jal	9d008a1c <.LFE5>
9d003a3c:	26730001 	addiu	s3,s3,1
9d003a40:	12c0ffc5 	beqz	s6,9d003958 <_vfscanf_cdfFnopuxX+0x7cc>
9d003a44:	2403ffff 	li	v1,-1
9d003a48:	2403002d 	li	v1,45
9d003a4c:	1043004c 	beq	v0,v1,9d003b80 <_vfscanf_cdfFnopuxX+0x9f4>
9d003a50:	2403002b 	li	v1,43
9d003a54:	5043004b 	beql	v0,v1,9d003b84 <_vfscanf_cdfFnopuxX+0x9f8>
9d003a58:	a2620000 	sb	v0,0(s3)
9d003a5c:	02221821 	addu	v1,s1,v0
9d003a60:	90630001 	lbu	v1,1(v1)
9d003a64:	30630004 	andi	v1,v1,0x4
9d003a68:	1060ffba 	beqz	v1,9d003954 <_vfscanf_cdfFnopuxX+0x7c8>
9d003a6c:	26d7ffff 	addiu	s7,s6,-1
9d003a70:	32f700ff 	andi	s7,s7,0xff
9d003a74:	26760001 	addiu	s6,s3,1
9d003a78:	0b400ea5 	j	9d003a94 <_vfscanf_cdfFnopuxX+0x908>
9d003a7c:	02d7b821 	addu	s7,s6,s7
9d003a80:	90630001 	lbu	v1,1(v1)
9d003a84:	30630004 	andi	v1,v1,0x4
9d003a88:	1060ffb3 	beqz	v1,9d003958 <_vfscanf_cdfFnopuxX+0x7cc>
9d003a8c:	2403ffff 	li	v1,-1
9d003a90:	26d60001 	addiu	s6,s6,1
9d003a94:	a2620000 	sb	v0,0(s3)
9d003a98:	8e047e84 	lw	a0,32388(s0)
9d003a9c:	0f402287 	jal	9d008a1c <.LFE5>
9d003aa0:	02c09821 	move	s3,s6
9d003aa4:	56d7fff6 	bnel	s6,s7,9d003a80 <_vfscanf_cdfFnopuxX+0x8f4>
9d003aa8:	02221821 	addu	v1,s1,v0
9d003aac:	0b400e56 	j	9d003958 <_vfscanf_cdfFnopuxX+0x7cc>
9d003ab0:	2403ffff 	li	v1,-1
9d003ab4:	1240ffd8 	beqz	s2,9d003a18 <_vfscanf_cdfFnopuxX+0x88c>
9d003ab8:	8e057e84 	lw	a1,32388(s0)
9d003abc:	0f4025b9 	jal	9d0096e4 <ungetc>
9d003ac0:	00402021 	move	a0,v0
9d003ac4:	0b400d9a 	j	9d003668 <_vfscanf_cdfFnopuxX+0x4dc>
9d003ac8:	00001821 	move	v1,zero
9d003acc:	8e057e84 	lw	a1,32388(s0)
9d003ad0:	0f4025b9 	jal	9d0096e4 <ungetc>
9d003ad4:	03c02021 	move	a0,s8
9d003ad8:	0b400db9 	j	9d0036e4 <_vfscanf_cdfFnopuxX+0x558>
9d003adc:	8fa30064 	lw	v1,100(sp)
9d003ae0:	8c820000 	lw	v0,0(a0)
9d003ae4:	24840004 	addiu	a0,a0,4
9d003ae8:	afa40098 	sw	a0,152(sp)
9d003aec:	0b400c79 	j	9d0031e4 <_vfscanf_cdfFnopuxX+0x58>
9d003af0:	a4430000 	sh	v1,0(v0)
9d003af4:	8fa40098 	lw	a0,152(sp)
9d003af8:	8fa20098 	lw	v0,152(sp)
9d003afc:	8c970000 	lw	s7,0(a0)
9d003b00:	00002821 	move	a1,zero
9d003b04:	27a40010 	addiu	a0,sp,16
9d003b08:	0f40277c 	jal	9d009df0 <.LFE1>
9d003b0c:	24560004 	addiu	s6,v0,4
9d003b10:	aee20000 	sw	v0,0(s7)
9d003b14:	afb60098 	sw	s6,152(sp)
9d003b18:	0b400c79 	j	9d0031e4 <_vfscanf_cdfFnopuxX+0x58>
9d003b1c:	03c0b821 	move	s7,s8
9d003b20:	0b400d77 	j	9d0035dc <_vfscanf_cdfFnopuxX+0x450>
9d003b24:	27d70001 	addiu	s7,s8,1
9d003b28:	8c647e84 	lw	a0,32388(v1)
9d003b2c:	26d6ffff 	addiu	s6,s6,-1
9d003b30:	a3a20010 	sb	v0,16(sp)
9d003b34:	0f402287 	jal	9d008a1c <.LFE5>
9d003b38:	7c16b420 	seb	s6,s6
9d003b3c:	0b400e30 	j	9d0038c0 <_vfscanf_cdfFnopuxX+0x734>
9d003b40:	27b70011 	addiu	s7,sp,17
9d003b44:	8c657e84 	lw	a1,32388(v1)
9d003b48:	0f4025b9 	jal	9d0096e4 <ungetc>
9d003b4c:	00402021 	move	a0,v0
9d003b50:	0b400d31 	j	9d0034c4 <_vfscanf_cdfFnopuxX+0x338>
9d003b54:	02a01021 	move	v0,s5
9d003b58:	8e047e84 	lw	a0,32388(s0)
9d003b5c:	0f402287 	jal	9d008a1c <.LFE5>
9d003b60:	afa30064 	sw	v1,100(sp)
9d003b64:	8fa30064 	lw	v1,100(sp)
9d003b68:	1462fe51 	bne	v1,v0,9d0034b0 <_vfscanf_cdfFnopuxX+0x324>
9d003b6c:	2403ffff 	li	v1,-1
9d003b70:	0b400c79 	j	9d0031e4 <_vfscanf_cdfFnopuxX+0x58>
9d003b74:	03c0b821 	move	s7,s8
9d003b78:	0b400c87 	j	9d00321c <_vfscanf_cdfFnopuxX+0x90>
9d003b7c:	03c0b821 	move	s7,s8
9d003b80:	a2620000 	sb	v0,0(s3)
9d003b84:	8e047e84 	lw	a0,32388(s0)
9d003b88:	26d6ffff 	addiu	s6,s6,-1
9d003b8c:	7c16b420 	seb	s6,s6
9d003b90:	0f402287 	jal	9d008a1c <.LFE5>
9d003b94:	26730001 	addiu	s3,s3,1
9d003b98:	56c0ffb1 	bnezl	s6,9d003a60 <_vfscanf_cdfFnopuxX+0x8d4>
9d003b9c:	02221821 	addu	v1,s1,v0
9d003ba0:	0b400e56 	j	9d003958 <_vfscanf_cdfFnopuxX+0x7cc>
9d003ba4:	2403ffff 	li	v1,-1

Disassembly of section .text._vfscanf_cdnopuxX:

9d003ba8 <_vfscanf_cdnopuxX>:
9d003ba8:	27bdffb8 	addiu	sp,sp,-72
9d003bac:	afb7003c 	sw	s7,60(sp)
9d003bb0:	afb40030 	sw	s4,48(sp)
9d003bb4:	3c179d01 	lui	s7,0x9d01
9d003bb8:	3c14a000 	lui	s4,0xa000
9d003bbc:	afb50034 	sw	s5,52(sp)
9d003bc0:	afb00020 	sw	s0,32(sp)
9d003bc4:	afbf0044 	sw	ra,68(sp)
9d003bc8:	afbe0040 	sw	s8,64(sp)
9d003bcc:	afb60038 	sw	s6,56(sp)
9d003bd0:	afb3002c 	sw	s3,44(sp)
9d003bd4:	afb20028 	sw	s2,40(sp)
9d003bd8:	afb10024 	sw	s1,36(sp)
9d003bdc:	26f78b24 	addiu	s7,s7,-29916
9d003be0:	00a08021 	move	s0,a1
9d003be4:	afa60050 	sw	a2,80(sp)
9d003be8:	ae847e88 	sw	a0,32392(s4)
9d003bec:	0000a821 	move	s5,zero
9d003bf0:	afa00018 	sw	zero,24(sp)
9d003bf4:	92110000 	lbu	s1,0(s0)
9d003bf8:	122000ca 	beqz	s1,9d003f24 <_vfscanf_cdnopuxX+0x37c>
9d003bfc:	8fbf0044 	lw	ra,68(sp)
9d003c00:	02f11021 	addu	v0,s7,s1
9d003c04:	80420001 	lb	v0,1(v0)
9d003c08:	30420088 	andi	v0,v0,0x88
9d003c0c:	144000bf 	bnez	v0,9d003f0c <_vfscanf_cdnopuxX+0x364>
9d003c10:	26100001 	addiu	s0,s0,1
9d003c14:	24020025 	li	v0,37
9d003c18:	162200a5 	bne	s1,v0,9d003eb0 <_vfscanf_cdnopuxX+0x308>
9d003c1c:	24030004 	li	v1,4
9d003c20:	82130000 	lb	s3,0(s0)
9d003c24:	00008821 	move	s1,zero
9d003c28:	afa30014 	sw	v1,20(sp)
9d003c2c:	0000f021 	move	s8,zero
9d003c30:	24160004 	li	s6,4
9d003c34:	327300ff 	andi	s3,s3,0xff
9d003c38:	2e620079 	sltiu	v0,s3,121
9d003c3c:	1440001c 	bnez	v0,9d003cb0 <_vfscanf_cdnopuxX+0x108>
9d003c40:	26120001 	addiu	s2,s0,1
9d003c44:	02f31021 	addu	v0,s7,s3
9d003c48:	90420001 	lbu	v0,1(v0)
9d003c4c:	30420004 	andi	v0,v0,0x4
9d003c50:	104001da 	beqz	v0,9d0043bc <_vfscanf_cdnopuxX+0x814>
9d003c54:	00000000 	nop
9d003c58:	0f402460 	jal	9d009180 <.LFE0>
9d003c5c:	02002021 	move	a0,s0
9d003c60:	82530000 	lb	s3,0(s2)
9d003c64:	3c039d01 	lui	v1,0x9d01
9d003c68:	24638b24 	addiu	v1,v1,-29916
9d003c6c:	7c028c20 	seb	s1,v0
9d003c70:	02631021 	addu	v0,s3,v1
9d003c74:	90420001 	lbu	v0,1(v0)
9d003c78:	30420004 	andi	v0,v0,0x4
9d003c7c:	1040ffed 	beqz	v0,9d003c34 <_vfscanf_cdnopuxX+0x8c>
9d003c80:	02408021 	move	s0,s2
9d003c84:	26100001 	addiu	s0,s0,1
9d003c88:	82130000 	lb	s3,0(s0)
9d003c8c:	02f31021 	addu	v0,s7,s3
9d003c90:	90420001 	lbu	v0,1(v0)
9d003c94:	30420004 	andi	v0,v0,0x4
9d003c98:	5440fffb 	bnezl	v0,9d003c88 <_vfscanf_cdnopuxX+0xe0>
9d003c9c:	26100001 	addiu	s0,s0,1
9d003ca0:	327300ff 	andi	s3,s3,0xff
9d003ca4:	2e620079 	sltiu	v0,s3,121
9d003ca8:	1040ffe6 	beqz	v0,9d003c44 <_vfscanf_cdnopuxX+0x9c>
9d003cac:	26120001 	addiu	s2,s0,1
9d003cb0:	3c039d00 	lui	v1,0x9d00
9d003cb4:	00131080 	sll	v0,s3,0x2
9d003cb8:	24633ccc 	addiu	v1,v1,15564
9d003cbc:	00621021 	addu	v0,v1,v0
9d003cc0:	8c420000 	lw	v0,0(v0)
9d003cc4:	00400008 	jr	v0
9d003cc8:	00000000 	nop
9d003ccc:	9d004280 	0x9d004280
9d003cd0:	9d003c44 	0x9d003c44
9d003cd4:	9d003c44 	0x9d003c44
9d003cd8:	9d003c44 	0x9d003c44
9d003cdc:	9d003c44 	0x9d003c44
9d003ce0:	9d003c44 	0x9d003c44
9d003ce4:	9d003c44 	0x9d003c44
9d003ce8:	9d003c44 	0x9d003c44
9d003cec:	9d003c44 	0x9d003c44
9d003cf0:	9d003c44 	0x9d003c44
9d003cf4:	9d003c44 	0x9d003c44
9d003cf8:	9d003c44 	0x9d003c44
9d003cfc:	9d003c44 	0x9d003c44
9d003d00:	9d003c44 	0x9d003c44
9d003d04:	9d003c44 	0x9d003c44
9d003d08:	9d003c44 	0x9d003c44
9d003d0c:	9d003c44 	0x9d003c44
9d003d10:	9d003c44 	0x9d003c44
9d003d14:	9d003c44 	0x9d003c44
9d003d18:	9d003c44 	0x9d003c44
9d003d1c:	9d003c44 	0x9d003c44
9d003d20:	9d003c44 	0x9d003c44
9d003d24:	9d003c44 	0x9d003c44
9d003d28:	9d003c44 	0x9d003c44
9d003d2c:	9d003c44 	0x9d003c44
9d003d30:	9d003c44 	0x9d003c44
9d003d34:	9d003c44 	0x9d003c44
9d003d38:	9d003c44 	0x9d003c44
9d003d3c:	9d003c44 	0x9d003c44
9d003d40:	9d003c44 	0x9d003c44
9d003d44:	9d003c44 	0x9d003c44
9d003d48:	9d003c44 	0x9d003c44
9d003d4c:	9d003c44 	0x9d003c44
9d003d50:	9d003c44 	0x9d003c44
9d003d54:	9d003c44 	0x9d003c44
9d003d58:	9d003c44 	0x9d003c44
9d003d5c:	9d003c44 	0x9d003c44
9d003d60:	9d003c44 	0x9d003c44
9d003d64:	9d003c44 	0x9d003c44
9d003d68:	9d003c44 	0x9d003c44
9d003d6c:	9d003c44 	0x9d003c44
9d003d70:	9d003c44 	0x9d003c44
9d003d74:	9d00426c 	0x9d00426c
9d003d78:	9d003c44 	0x9d003c44
9d003d7c:	9d003c44 	0x9d003c44
9d003d80:	9d003c44 	0x9d003c44
9d003d84:	9d003c44 	0x9d003c44
9d003d88:	9d003c44 	0x9d003c44
9d003d8c:	9d003c44 	0x9d003c44
9d003d90:	9d003c44 	0x9d003c44
9d003d94:	9d003c44 	0x9d003c44
9d003d98:	9d003c44 	0x9d003c44
9d003d9c:	9d003c44 	0x9d003c44
9d003da0:	9d003c44 	0x9d003c44
9d003da4:	9d003c44 	0x9d003c44
9d003da8:	9d003c44 	0x9d003c44
9d003dac:	9d003c44 	0x9d003c44
9d003db0:	9d003c44 	0x9d003c44
9d003db4:	9d003c44 	0x9d003c44
9d003db8:	9d003c44 	0x9d003c44
9d003dbc:	9d003c44 	0x9d003c44
9d003dc0:	9d003c44 	0x9d003c44
9d003dc4:	9d003c44 	0x9d003c44
9d003dc8:	9d003c44 	0x9d003c44
9d003dcc:	9d003c44 	0x9d003c44
9d003dd0:	9d003c44 	0x9d003c44
9d003dd4:	9d003c44 	0x9d003c44
9d003dd8:	9d003c44 	0x9d003c44
9d003ddc:	9d003c44 	0x9d003c44
9d003de0:	9d003c44 	0x9d003c44
9d003de4:	9d003c44 	0x9d003c44
9d003de8:	9d003c44 	0x9d003c44
9d003dec:	9d003c44 	0x9d003c44
9d003df0:	9d003c44 	0x9d003c44
9d003df4:	9d003c44 	0x9d003c44
9d003df8:	9d003c44 	0x9d003c44
9d003dfc:	9d004250 	0x9d004250
9d003e00:	9d003c44 	0x9d003c44
9d003e04:	9d003c44 	0x9d003c44
9d003e08:	9d003c44 	0x9d003c44
9d003e0c:	9d003c44 	0x9d003c44
9d003e10:	9d003c44 	0x9d003c44
9d003e14:	9d003c44 	0x9d003c44
9d003e18:	9d003c44 	0x9d003c44
9d003e1c:	9d003c44 	0x9d003c44
9d003e20:	9d003c44 	0x9d003c44
9d003e24:	9d003c44 	0x9d003c44
9d003e28:	9d003c44 	0x9d003c44
9d003e2c:	9d004240 	0x9d004240
9d003e30:	9d003c44 	0x9d003c44
9d003e34:	9d003c44 	0x9d003c44
9d003e38:	9d003c44 	0x9d003c44
9d003e3c:	9d003c44 	0x9d003c44
9d003e40:	9d003c44 	0x9d003c44
9d003e44:	9d003c44 	0x9d003c44
9d003e48:	9d003c44 	0x9d003c44
9d003e4c:	9d003c44 	0x9d003c44
9d003e50:	9d003c44 	0x9d003c44
9d003e54:	9d003c44 	0x9d003c44
9d003e58:	9d0041f8 	0x9d0041f8
9d003e5c:	9d0041ec 	0x9d0041ec
9d003e60:	9d003c44 	0x9d003c44
9d003e64:	9d003c44 	0x9d003c44
9d003e68:	9d003c44 	0x9d003c44
9d003e6c:	9d0041d8 	0x9d0041d8
9d003e70:	9d0041ec 	0x9d0041ec
9d003e74:	9d003c44 	0x9d003c44
9d003e78:	9d003c44 	0x9d003c44
9d003e7c:	9d004250 	0x9d004250
9d003e80:	9d003c44 	0x9d003c44
9d003e84:	9d003c44 	0x9d003c44
9d003e88:	9d004120 	0x9d004120
9d003e8c:	9d003c44 	0x9d003c44
9d003e90:	9d003c44 	0x9d003c44
9d003e94:	9d003c44 	0x9d003c44
9d003e98:	9d00406c 	0x9d00406c
9d003e9c:	9d003c44 	0x9d003c44
9d003ea0:	9d0041ec 	0x9d0041ec
9d003ea4:	9d003c44 	0x9d003c44
9d003ea8:	9d003c44 	0x9d003c44
9d003eac:	9d003f54 	0x9d003f54
9d003eb0:	0f402287 	jal	9d008a1c <.LFE5>
9d003eb4:	8e847e88 	lw	a0,32392(s4)
9d003eb8:	5222ff4f 	beql	s1,v0,9d003bf8 <_vfscanf_cdnopuxX+0x50>
9d003ebc:	92110000 	lbu	s1,0(s0)
9d003ec0:	2403ffff 	li	v1,-1
9d003ec4:	14430138 	bne	v0,v1,9d0043a8 <_vfscanf_cdnopuxX+0x800>
9d003ec8:	3c03a000 	lui	v1,0xa000
9d003ecc:	8fa20018 	lw	v0,24(sp)
9d003ed0:	144000f0 	bnez	v0,9d004294 <_vfscanf_cdnopuxX+0x6ec>
9d003ed4:	8fbf0044 	lw	ra,68(sp)
9d003ed8:	2402ffff 	li	v0,-1
9d003edc:	8fbf0044 	lw	ra,68(sp)
9d003ee0:	8fbe0040 	lw	s8,64(sp)
9d003ee4:	8fb7003c 	lw	s7,60(sp)
9d003ee8:	8fb60038 	lw	s6,56(sp)
9d003eec:	8fb50034 	lw	s5,52(sp)
9d003ef0:	8fb40030 	lw	s4,48(sp)
9d003ef4:	8fb3002c 	lw	s3,44(sp)
9d003ef8:	8fb20028 	lw	s2,40(sp)
9d003efc:	8fb10024 	lw	s1,36(sp)
9d003f00:	8fb00020 	lw	s0,32(sp)
9d003f04:	03e00008 	jr	ra
9d003f08:	27bd0048 	addiu	sp,sp,72
9d003f0c:	0f402679 	jal	9d0099e4 <E999+0x6c>
9d003f10:	00000000 	nop
9d003f14:	92110000 	lbu	s1,0(s0)
9d003f18:	1620ff3a 	bnez	s1,9d003c04 <_vfscanf_cdnopuxX+0x5c>
9d003f1c:	02f11021 	addu	v0,s7,s1
9d003f20:	8fbf0044 	lw	ra,68(sp)
9d003f24:	8fa20018 	lw	v0,24(sp)
9d003f28:	8fbe0040 	lw	s8,64(sp)
9d003f2c:	8fb7003c 	lw	s7,60(sp)
9d003f30:	8fb60038 	lw	s6,56(sp)
9d003f34:	8fb50034 	lw	s5,52(sp)
9d003f38:	8fb40030 	lw	s4,48(sp)
9d003f3c:	8fb3002c 	lw	s3,44(sp)
9d003f40:	8fb20028 	lw	s2,40(sp)
9d003f44:	8fb10024 	lw	s1,36(sp)
9d003f48:	8fb00020 	lw	s0,32(sp)
9d003f4c:	03e00008 	jr	ra
9d003f50:	27bd0048 	addiu	sp,sp,72
9d003f54:	02408021 	move	s0,s2
9d003f58:	24130010 	li	s3,16
9d003f5c:	0000a821 	move	s5,zero
9d003f60:	0f402679 	jal	9d0099e4 <E999+0x6c>
9d003f64:	00000000 	nop
9d003f68:	0f402287 	jal	9d008a1c <.LFE5>
9d003f6c:	8e847e88 	lw	a0,32392(s4)
9d003f70:	2403002d 	li	v1,45
9d003f74:	10430072 	beq	v0,v1,9d004140 <_vfscanf_cdnopuxX+0x598>
9d003f78:	00409021 	move	s2,v0
9d003f7c:	02402021 	move	a0,s2
9d003f80:	02602821 	move	a1,s3
9d003f84:	02a03021 	move	a2,s5
9d003f88:	0f4024de 	jal	9d009378 <i42+0xc4>
9d003f8c:	afa0001c 	sw	zero,28(sp)
9d003f90:	240300ff 	li	v1,255
9d003f94:	10430078 	beq	v0,v1,9d004178 <_vfscanf_cdnopuxX+0x5d0>
9d003f98:	8e857e88 	lw	a1,32392(s4)
9d003f9c:	24020030 	li	v0,48
9d003fa0:	124200dd 	beq	s2,v0,9d004318 <_vfscanf_cdnopuxX+0x770>
9d003fa4:	00000000 	nop
9d003fa8:	0000b021 	move	s6,zero
9d003fac:	72d3b002 	mul	s6,s6,s3
9d003fb0:	02402021 	move	a0,s2
9d003fb4:	02602821 	move	a1,s3
9d003fb8:	02a03021 	move	a2,s5
9d003fbc:	0f4024de 	jal	9d009378 <i42+0xc4>
9d003fc0:	2631ffff 	addiu	s1,s1,-1
9d003fc4:	7c118c20 	seb	s1,s1
9d003fc8:	1220000b 	beqz	s1,9d003ff8 <_vfscanf_cdnopuxX+0x450>
9d003fcc:	0056b021 	addu	s6,v0,s6
9d003fd0:	0f402287 	jal	9d008a1c <.LFE5>
9d003fd4:	8e847e88 	lw	a0,32392(s4)
9d003fd8:	00402021 	move	a0,v0
9d003fdc:	02602821 	move	a1,s3
9d003fe0:	02a03021 	move	a2,s5
9d003fe4:	0f4024de 	jal	9d009378 <i42+0xc4>
9d003fe8:	00409021 	move	s2,v0
9d003fec:	240300ff 	li	v1,255
9d003ff0:	5443ffef 	bnel	v0,v1,9d003fb0 <_vfscanf_cdnopuxX+0x408>
9d003ff4:	72d3b002 	mul	s6,s6,s3
9d003ff8:	02402021 	move	a0,s2
9d003ffc:	02602821 	move	a1,s3
9d004000:	0f4024de 	jal	9d009378 <i42+0xc4>
9d004004:	02a03021 	move	a2,s5
9d004008:	240300ff 	li	v1,255
9d00400c:	104300d5 	beq	v0,v1,9d004364 <_vfscanf_cdnopuxX+0x7bc>
9d004010:	8e857e88 	lw	a1,32392(s4)
9d004014:	8fa2001c 	lw	v0,28(sp)
9d004018:	54400001 	bnezl	v0,9d004020 <_vfscanf_cdnopuxX+0x478>
9d00401c:	0016b023 	negu	s6,s6
9d004020:	57c0fef5 	bnezl	s8,9d003bf8 <_vfscanf_cdnopuxX+0x50>
9d004024:	92110000 	lbu	s1,0(s0)
9d004028:	8fa30018 	lw	v1,24(sp)
9d00402c:	24620001 	addiu	v0,v1,1
9d004030:	304200ff 	andi	v0,v0,0xff
9d004034:	8fa30014 	lw	v1,20(sp)
9d004038:	afa20018 	sw	v0,24(sp)
9d00403c:	24020004 	li	v0,4
9d004040:	10620004 	beq	v1,v0,9d004054 <_vfscanf_cdnopuxX+0x4ac>
9d004044:	8fa30014 	lw	v1,20(sp)
9d004048:	24020002 	li	v0,2
9d00404c:	106200c9 	beq	v1,v0,9d004374 <_vfscanf_cdnopuxX+0x7cc>
9d004050:	8fa30050 	lw	v1,80(sp)
9d004054:	8fa30050 	lw	v1,80(sp)
9d004058:	8c620000 	lw	v0,0(v1)
9d00405c:	24630004 	addiu	v1,v1,4
9d004060:	afa30050 	sw	v1,80(sp)
9d004064:	0b400efd 	j	9d003bf4 <_vfscanf_cdnopuxX+0x4c>
9d004068:	ac560000 	sw	s6,0(v0)
9d00406c:	0f402679 	jal	9d0099e4 <E999+0x6c>
9d004070:	00000000 	nop
9d004074:	13c000a2 	beqz	s8,9d004300 <_vfscanf_cdnopuxX+0x758>
9d004078:	8fa20050 	lw	v0,80(sp)
9d00407c:	0f402287 	jal	9d008a1c <.LFE5>
9d004080:	8e847e88 	lw	a0,32392(s4)
9d004084:	2403ffff 	li	v1,-1
9d004088:	5043ff91 	beql	v0,v1,9d003ed0 <_vfscanf_cdnopuxX+0x328>
9d00408c:	8fa20018 	lw	v0,24(sp)
9d004090:	14400014 	bnez	v0,9d0040e4 <_vfscanf_cdnopuxX+0x53c>
9d004094:	24430001 	addiu	v1,v0,1
9d004098:	0b40103f 	j	9d0040fc <_vfscanf_cdnopuxX+0x554>
9d00409c:	02408021 	move	s0,s2
9d0040a0:	106200b9 	beq	v1,v0,9d004388 <_vfscanf_cdnopuxX+0x7e0>
9d0040a4:	00000000 	nop
9d0040a8:	17c00005 	bnez	s8,9d0040c0 <_vfscanf_cdnopuxX+0x518>
9d0040ac:	2631ffff 	addiu	s1,s1,-1
9d0040b0:	8fa30010 	lw	v1,16(sp)
9d0040b4:	a0620000 	sb	v0,0(v1)
9d0040b8:	24630001 	addiu	v1,v1,1
9d0040bc:	afa30010 	sw	v1,16(sp)
9d0040c0:	7c118c20 	seb	s1,s1
9d0040c4:	1220000d 	beqz	s1,9d0040fc <_vfscanf_cdnopuxX+0x554>
9d0040c8:	02408021 	move	s0,s2
9d0040cc:	0f402287 	jal	9d008a1c <.LFE5>
9d0040d0:	8e847e88 	lw	a0,32392(s4)
9d0040d4:	24430001 	addiu	v1,v0,1
9d0040d8:	2c640002 	sltiu	a0,v1,2
9d0040dc:	14800007 	bnez	a0,9d0040fc <_vfscanf_cdnopuxX+0x554>
9d0040e0:	02408021 	move	s0,s2
9d0040e4:	02e31821 	addu	v1,s7,v1
9d0040e8:	80630000 	lb	v1,0(v1)
9d0040ec:	30630088 	andi	v1,v1,0x88
9d0040f0:	5060ffeb 	beqzl	v1,9d0040a0 <_vfscanf_cdnopuxX+0x4f8>
9d0040f4:	82430000 	lb	v1,0(s2)
9d0040f8:	02408021 	move	s0,s2
9d0040fc:	57c0febe 	bnezl	s8,9d003bf8 <_vfscanf_cdnopuxX+0x50>
9d004100:	92110000 	lbu	s1,0(s0)
9d004104:	8fa30018 	lw	v1,24(sp)
9d004108:	24620001 	addiu	v0,v1,1
9d00410c:	304200ff 	andi	v0,v0,0xff
9d004110:	afa20018 	sw	v0,24(sp)
9d004114:	8fa20010 	lw	v0,16(sp)
9d004118:	0b400efd 	j	9d003bf4 <_vfscanf_cdnopuxX+0x4c>
9d00411c:	a0400000 	sb	zero,0(v0)
9d004120:	0f402679 	jal	9d0099e4 <E999+0x6c>
9d004124:	02408021 	move	s0,s2
9d004128:	0f402287 	jal	9d008a1c <.LFE5>
9d00412c:	8e847e88 	lw	a0,32392(s4)
9d004130:	2403002d 	li	v1,45
9d004134:	24130008 	li	s3,8
9d004138:	1443ff90 	bne	v0,v1,9d003f7c <_vfscanf_cdnopuxX+0x3d4>
9d00413c:	00409021 	move	s2,v0
9d004140:	3c02a000 	lui	v0,0xa000
9d004144:	8c447e88 	lw	a0,32392(v0)
9d004148:	24030001 	li	v1,1
9d00414c:	0f402287 	jal	9d008a1c <.LFE5>
9d004150:	afa3001c 	sw	v1,28(sp)
9d004154:	00409021 	move	s2,v0
9d004158:	02402021 	move	a0,s2
9d00415c:	02602821 	move	a1,s3
9d004160:	0f4024de 	jal	9d009378 <i42+0xc4>
9d004164:	02a03021 	move	a2,s5
9d004168:	240300ff 	li	v1,255
9d00416c:	1443ff8c 	bne	v0,v1,9d003fa0 <_vfscanf_cdnopuxX+0x3f8>
9d004170:	24020030 	li	v0,48
9d004174:	8e857e88 	lw	a1,32392(s4)
9d004178:	0f4025b9 	jal	9d0096e4 <ungetc>
9d00417c:	02402021 	move	a0,s2
9d004180:	8fa20018 	lw	v0,24(sp)
9d004184:	14400043 	bnez	v0,9d004294 <_vfscanf_cdnopuxX+0x6ec>
9d004188:	8fbf0044 	lw	ra,68(sp)
9d00418c:	3c02a000 	lui	v0,0xa000
9d004190:	8c427e88 	lw	v0,32392(v0)
9d004194:	9442000c 	lhu	v0,12(v0)
9d004198:	30420010 	andi	v0,v0,0x10
9d00419c:	1440ff50 	bnez	v0,9d003ee0 <_vfscanf_cdnopuxX+0x338>
9d0041a0:	2402ffff 	li	v0,-1
9d0041a4:	8fbf0044 	lw	ra,68(sp)
9d0041a8:	00001021 	move	v0,zero
9d0041ac:	8fbe0040 	lw	s8,64(sp)
9d0041b0:	8fb7003c 	lw	s7,60(sp)
9d0041b4:	8fb60038 	lw	s6,56(sp)
9d0041b8:	8fb50034 	lw	s5,52(sp)
9d0041bc:	8fb40030 	lw	s4,48(sp)
9d0041c0:	8fb3002c 	lw	s3,44(sp)
9d0041c4:	8fb20028 	lw	s2,40(sp)
9d0041c8:	8fb10024 	lw	s1,36(sp)
9d0041cc:	8fb00020 	lw	s0,32(sp)
9d0041d0:	03e00008 	jr	ra
9d0041d4:	27bd0048 	addiu	sp,sp,72
9d0041d8:	24020002 	li	v0,2
9d0041dc:	82530000 	lb	s3,0(s2)
9d0041e0:	02408021 	move	s0,s2
9d0041e4:	0b400f0d 	j	9d003c34 <_vfscanf_cdnopuxX+0x8c>
9d0041e8:	afa20014 	sw	v0,20(sp)
9d0041ec:	02408021 	move	s0,s2
9d0041f0:	0b400fd8 	j	9d003f60 <_vfscanf_cdnopuxX+0x3b8>
9d0041f4:	2413000a 	li	s3,10
9d0041f8:	13c00037 	beqz	s8,9d0042d8 <_vfscanf_cdnopuxX+0x730>
9d0041fc:	8fa30018 	lw	v1,24(sp)
9d004200:	2410ffff 	li	s0,-1
9d004204:	0f402287 	jal	9d008a1c <.LFE5>
9d004208:	8e847e88 	lw	a0,32392(s4)
9d00420c:	10500062 	beq	v0,s0,9d004398 <_vfscanf_cdnopuxX+0x7f0>
9d004210:	8fa30018 	lw	v1,24(sp)
9d004214:	17c00005 	bnez	s8,9d00422c <_vfscanf_cdnopuxX+0x684>
9d004218:	2631ffff 	addiu	s1,s1,-1
9d00421c:	8fa30010 	lw	v1,16(sp)
9d004220:	a0620000 	sb	v0,0(v1)
9d004224:	24630001 	addiu	v1,v1,1
9d004228:	afa30010 	sw	v1,16(sp)
9d00422c:	7c118c20 	seb	s1,s1
9d004230:	1e20fff4 	bgtz	s1,9d004204 <_vfscanf_cdnopuxX+0x65c>
9d004234:	00000000 	nop
9d004238:	0b400efd 	j	9d003bf4 <_vfscanf_cdnopuxX+0x4c>
9d00423c:	02408021 	move	s0,s2
9d004240:	02408021 	move	s0,s2
9d004244:	24130010 	li	s3,16
9d004248:	0b400fd8 	j	9d003f60 <_vfscanf_cdnopuxX+0x3b8>
9d00424c:	24150001 	li	s5,1
9d004250:	8fa20014 	lw	v0,20(sp)
9d004254:	10560007 	beq	v0,s6,9d004274 <_vfscanf_cdnopuxX+0x6cc>
9d004258:	24030008 	li	v1,8
9d00425c:	82530000 	lb	s3,0(s2)
9d004260:	02408021 	move	s0,s2
9d004264:	0b400f0d 	j	9d003c34 <_vfscanf_cdnopuxX+0x8c>
9d004268:	afa30014 	sw	v1,20(sp)
9d00426c:	27de0001 	addiu	s8,s8,1
9d004270:	33de00ff 	andi	s8,s8,0xff
9d004274:	82530000 	lb	s3,0(s2)
9d004278:	0b400f0d 	j	9d003c34 <_vfscanf_cdnopuxX+0x8c>
9d00427c:	02408021 	move	s0,s2
9d004280:	8fa30018 	lw	v1,24(sp)
9d004284:	1060000e 	beqz	v1,9d0042c0 <_vfscanf_cdnopuxX+0x718>
9d004288:	8e827e88 	lw	v0,32392(s4)
9d00428c:	00601021 	move	v0,v1
9d004290:	8fbf0044 	lw	ra,68(sp)
9d004294:	8fbe0040 	lw	s8,64(sp)
9d004298:	8fb7003c 	lw	s7,60(sp)
9d00429c:	8fb60038 	lw	s6,56(sp)
9d0042a0:	8fb50034 	lw	s5,52(sp)
9d0042a4:	8fb40030 	lw	s4,48(sp)
9d0042a8:	8fb3002c 	lw	s3,44(sp)
9d0042ac:	8fb20028 	lw	s2,40(sp)
9d0042b0:	8fb10024 	lw	s1,36(sp)
9d0042b4:	8fb00020 	lw	s0,32(sp)
9d0042b8:	03e00008 	jr	ra
9d0042bc:	27bd0048 	addiu	sp,sp,72
9d0042c0:	9442000c 	lhu	v0,12(v0)
9d0042c4:	30420010 	andi	v0,v0,0x10
9d0042c8:	1040ffb7 	beqz	v0,9d0041a8 <_vfscanf_cdnopuxX+0x600>
9d0042cc:	8fbf0044 	lw	ra,68(sp)
9d0042d0:	0b400fb8 	j	9d003ee0 <_vfscanf_cdnopuxX+0x338>
9d0042d4:	2402ffff 	li	v0,-1
9d0042d8:	24620001 	addiu	v0,v1,1
9d0042dc:	8fa30050 	lw	v1,80(sp)
9d0042e0:	304200ff 	andi	v0,v0,0xff
9d0042e4:	8c630000 	lw	v1,0(v1)
9d0042e8:	afa20018 	sw	v0,24(sp)
9d0042ec:	8fa20050 	lw	v0,80(sp)
9d0042f0:	afa30010 	sw	v1,16(sp)
9d0042f4:	24420004 	addiu	v0,v0,4
9d0042f8:	0b401080 	j	9d004200 <_vfscanf_cdnopuxX+0x658>
9d0042fc:	afa20050 	sw	v0,80(sp)
9d004300:	8fa30050 	lw	v1,80(sp)
9d004304:	8c420000 	lw	v0,0(v0)
9d004308:	24630004 	addiu	v1,v1,4
9d00430c:	afa20010 	sw	v0,16(sp)
9d004310:	0b40101f 	j	9d00407c <_vfscanf_cdnopuxX+0x4d4>
9d004314:	afa30050 	sw	v1,80(sp)
9d004318:	0f402287 	jal	9d008a1c <.LFE5>
9d00431c:	8e847e88 	lw	a0,32392(s4)
9d004320:	24030078 	li	v1,120
9d004324:	10430009 	beq	v0,v1,9d00434c <_vfscanf_cdnopuxX+0x7a4>
9d004328:	24030058 	li	v1,88
9d00432c:	14430009 	bne	v0,v1,9d004354 <_vfscanf_cdnopuxX+0x7ac>
9d004330:	8e857e88 	lw	a1,32392(s4)
9d004334:	12a00007 	beqz	s5,9d004354 <_vfscanf_cdnopuxX+0x7ac>
9d004338:	00000000 	nop
9d00433c:	0f402287 	jal	9d008a1c <.LFE5>
9d004340:	8e847e88 	lw	a0,32392(s4)
9d004344:	0b400fea 	j	9d003fa8 <_vfscanf_cdnopuxX+0x400>
9d004348:	00409021 	move	s2,v0
9d00434c:	12a0fffb 	beqz	s5,9d00433c <_vfscanf_cdnopuxX+0x794>
9d004350:	8e857e88 	lw	a1,32392(s4)
9d004354:	0f4025b9 	jal	9d0096e4 <ungetc>
9d004358:	00402021 	move	a0,v0
9d00435c:	0b400feb 	j	9d003fac <_vfscanf_cdnopuxX+0x404>
9d004360:	0000b021 	move	s6,zero
9d004364:	0f4025b9 	jal	9d0096e4 <ungetc>
9d004368:	02402021 	move	a0,s2
9d00436c:	0b401006 	j	9d004018 <_vfscanf_cdnopuxX+0x470>
9d004370:	8fa2001c 	lw	v0,28(sp)
9d004374:	8c620000 	lw	v0,0(v1)
9d004378:	24630004 	addiu	v1,v1,4
9d00437c:	afa30050 	sw	v1,80(sp)
9d004380:	0b400efd 	j	9d003bf4 <_vfscanf_cdnopuxX+0x4c>
9d004384:	a4560000 	sh	s6,0(v0)
9d004388:	17c0fe1a 	bnez	s8,9d003bf4 <_vfscanf_cdnopuxX+0x4c>
9d00438c:	26500001 	addiu	s0,s2,1
9d004390:	0b401042 	j	9d004108 <_vfscanf_cdnopuxX+0x560>
9d004394:	8fa30018 	lw	v1,24(sp)
9d004398:	5460ffbd 	bnezl	v1,9d004290 <_vfscanf_cdnopuxX+0x6e8>
9d00439c:	00601021 	move	v0,v1
9d0043a0:	0b400fb7 	j	9d003edc <_vfscanf_cdnopuxX+0x334>
9d0043a4:	2402ffff 	li	v0,-1
9d0043a8:	8c657e88 	lw	a1,32392(v1)
9d0043ac:	0f4025b9 	jal	9d0096e4 <ungetc>
9d0043b0:	00402021 	move	a0,v0
9d0043b4:	0b4010a4 	j	9d004290 <_vfscanf_cdnopuxX+0x6e8>
9d0043b8:	8fa20018 	lw	v0,24(sp)
9d0043bc:	0f402287 	jal	9d008a1c <.LFE5>
9d0043c0:	8e847e88 	lw	a0,32392(s4)
9d0043c4:	1662febf 	bne	s3,v0,9d003ec4 <_vfscanf_cdnopuxX+0x31c>
9d0043c8:	2403ffff 	li	v1,-1
9d0043cc:	0b400efd 	j	9d003bf4 <_vfscanf_cdnopuxX+0x4c>
9d0043d0:	02408021 	move	s0,s2

Disassembly of section .text:

9d0043d4 <control_law>:
  __builtin_disable_interrupts(); //keep ISR disabled as brifly as possible
    Eint=0;
  __builtin_enable_interrupts();  //3 simple C commands while ISRs diabled
}

static int control_law(control_data d){ //computes the control law
9d0043d4:	27bdffe0 	addiu	sp,sp,-32
9d0043d8:	afbf001c 	sw	ra,28(sp)
9d0043dc:	afb20018 	sw	s2,24(sp)
9d0043e0:	afb10014 	sw	s1,20(sp)
9d0043e4:	afb00010 	sw	s0,16(sp)
9d0043e8:	afa40020 	sw	a0,32(sp)
9d0043ec:	afa50024 	sw	a1,36(sp)
9d0043f0:	afa60028 	sw	a2,40(sp)
       static int e=0,u=50;  
        e=d.reference-d.sensor;
9d0043f4:	00852023 	subu	a0,a0,a1
9d0043f8:	af84802c 	sw	a0,-32724(gp)
        Eint=Eint+e;
9d0043fc:	8f828070 	lw	v0,-32656(gp)
9d004400:	00821021 	addu	v0,a0,v0
9d004404:	af828070 	sw	v0,-32656(gp)
        u=Kp_m*e+Ki_m*Eint;
9d004408:	8f918024 	lw	s1,-32732(gp)
9d00440c:	8f908070 	lw	s0,-32656(gp)
9d004410:	8f928028 	lw	s2,-32728(gp)
9d004414:	0f402649 	jal	9d009924 <__floatsisf>
9d004418:	00000000 	nop
9d00441c:	00402021 	move	a0,v0
9d004420:	0f401fb6 	jal	9d007ed8 <__mulsf3>
9d004424:	02202821 	move	a1,s1
9d004428:	00408821 	move	s1,v0
9d00442c:	0f402649 	jal	9d009924 <__floatsisf>
9d004430:	02002021 	move	a0,s0
9d004434:	00402021 	move	a0,v0
9d004438:	0f401fb6 	jal	9d007ed8 <__mulsf3>
9d00443c:	02402821 	move	a1,s2
9d004440:	02202021 	move	a0,s1
9d004444:	0f401d21 	jal	9d007484 <__addsf3>
9d004448:	00402821 	move	a1,v0
9d00444c:	0f402599 	jal	9d009664 <__fixsfsi>
9d004450:	00402021 	move	a0,v0
        if (u > 100) u = 100; //saturate at -100% and 100%
9d004454:	28430065 	slti	v1,v0,101
9d004458:	14600004 	bnez	v1,9d00446c <control_law+0x98>
9d00445c:	af828014 	sw	v0,-32748(gp)
9d004460:	24020064 	li	v0,100
9d004464:	0b40111f 	j	9d00447c <control_law+0xa8>
9d004468:	af828014 	sw	v0,-32748(gp)
        if (u < -100) u = -100;
9d00446c:	2842ff9c 	slti	v0,v0,-100
9d004470:	10400002 	beqz	v0,9d00447c <control_law+0xa8>
9d004474:	2402ff9c 	li	v0,-100
9d004478:	af828014 	sw	v0,-32748(gp)
 return u;
}
9d00447c:	8f828014 	lw	v0,-32748(gp)
9d004480:	8fbf001c 	lw	ra,28(sp)
9d004484:	8fb20018 	lw	s2,24(sp)
9d004488:	8fb10014 	lw	s1,20(sp)
9d00448c:	8fb00010 	lw	s0,16(sp)
9d004490:	03e00008 	jr	ra
9d004494:	27bd0020 	addiu	sp,sp,32

9d004498 <motor_init>:
//**********end interrupt*********************

void motor_init(void){           // Initializes the module and the peripherals it uses

//*******Set up Interrupt***************************
__builtin_disable_interrupts(); //disable interrupts at CPU
9d004498:	41626000 	di	v0
9d00449c:	000000c0 	ehb
                                 
  PR2 = 15999;                  // set period register-5kHz
9d0044a0:	24033e7f 	li	v1,15999
9d0044a4:	3c02bf80 	lui	v0,0xbf80
9d0044a8:	ac430820 	sw	v1,2080(v0)
  TMR2 = 0;                     // initialize count to 0
9d0044ac:	3c02bf80 	lui	v0,0xbf80
9d0044b0:	ac400810 	sw	zero,2064(v0)
  T2CONbits.TCKPS =0;           // set prescaler to 1
9d0044b4:	3c02bf80 	lui	v0,0xbf80
9d0044b8:	8c430800 	lw	v1,2048(v0)
9d0044bc:	7c033104 	ins	v1,zero,0x4,0x3
9d0044c0:	ac430800 	sw	v1,2048(v0)
  T2CONbits.TGATE = 0;          //  not gated input (the default)
9d0044c4:	8c430800 	lw	v1,2048(v0)
9d0044c8:	7c0339c4 	ins	v1,zero,0x7,0x1
9d0044cc:	ac430800 	sw	v1,2048(v0)
  T2CONbits.TCS = 0;            // PCBLK input (the default)
9d0044d0:	8c430800 	lw	v1,2048(v0)
9d0044d4:	7c030844 	ins	v1,zero,0x1,0x1
9d0044d8:	ac430800 	sw	v1,2048(v0)
  T2CONbits.ON = 1;             // turn on Timer2
9d0044dc:	8c440800 	lw	a0,2048(v0)
9d0044e0:	24030001 	li	v1,1
9d0044e4:	7c647bc4 	ins	a0,v1,0xf,0x1
9d0044e8:	ac440800 	sw	a0,2048(v0)
  IPC2bits.T2IP = 5;            // priority
9d0044ec:	3c02bf88 	lui	v0,0xbf88
9d0044f0:	8c4410b0 	lw	a0,4272(v0)
9d0044f4:	24050005 	li	a1,5
9d0044f8:	7ca42084 	ins	a0,a1,0x2,0x3
9d0044fc:	ac4410b0 	sw	a0,4272(v0)
  IPC2bits.T2IS = 0;            // subpriority
9d004500:	8c4410b0 	lw	a0,4272(v0)
9d004504:	7c040804 	ins	a0,zero,0x0,0x2
9d004508:	ac4410b0 	sw	a0,4272(v0)
  IFS0bits.T2IF = 0;            // clear interrupt flag
9d00450c:	3c02bf88 	lui	v0,0xbf88
9d004510:	8c441030 	lw	a0,4144(v0)
9d004514:	7c044204 	ins	a0,zero,0x8,0x1
9d004518:	ac441030 	sw	a0,4144(v0)
  IEC0bits.T2IE = 1;            // enable interrupt
9d00451c:	3c02bf88 	lui	v0,0xbf88
9d004520:	8c441060 	lw	a0,4192(v0)
9d004524:	7c644204 	ins	a0,v1,0x8,0x1
9d004528:	ac441060 	sw	a0,4192(v0)
 __builtin_enable_interrupts(); // enable interrupts at CPU
9d00452c:	41626020 	ei	v0
//**************end Interrupt set up

//********PWM set up*********  
  T3CONbits.TCKPS = 0;     // Timer3 prescaler N=1 (1:1)
9d004530:	3c04bf80 	lui	a0,0xbf80
9d004534:	8c820a00 	lw	v0,2560(a0)
9d004538:	7c023104 	ins	v0,zero,0x4,0x3
9d00453c:	ac820a00 	sw	v0,2560(a0)
  PR3 = 3999;              // set period register-20kHz
9d004540:	24050f9f 	li	a1,3999
9d004544:	3c02bf80 	lui	v0,0xbf80
9d004548:	ac450a20 	sw	a1,2592(v0)
  TMR3 = 0;                // initialize count to 0
9d00454c:	3c02bf80 	lui	v0,0xbf80
9d004550:	ac400a10 	sw	zero,2576(v0)
  OC1CONbits.OCM = 0b110;  // PWM mode without fault pin; other OC1CON bits are defaults
9d004554:	3c02bf80 	lui	v0,0xbf80
9d004558:	8c453000 	lw	a1,12288(v0)
9d00455c:	24060006 	li	a2,6
9d004560:	7cc51004 	ins	a1,a2,0x0,0x3
9d004564:	ac453000 	sw	a1,12288(v0)
  OC1CONbits.OCTSEL=1;     // Timer select bit or output compare 1 on port D
9d004568:	8c453000 	lw	a1,12288(v0)
9d00456c:	7c6518c4 	ins	a1,v1,0x3,0x1
9d004570:	ac453000 	sw	a1,12288(v0)
  OC1RS = 2000;            // set duty cycle = OC1RS/(PR3+1) = 50%
9d004574:	240507d0 	li	a1,2000
9d004578:	3c06bf80 	lui	a2,0xbf80
9d00457c:	acc53020 	sw	a1,12320(a2)
  OC1R = 2000;             // initialize before turning OC1 on; afterward it is read-only
9d004580:	3c06bf80 	lui	a2,0xbf80
9d004584:	acc53010 	sw	a1,12304(a2)
  T3CONbits.ON = 1;        // turn on Timer3
9d004588:	8c850a00 	lw	a1,2560(a0)
9d00458c:	7c657bc4 	ins	a1,v1,0xf,0x1
9d004590:	ac850a00 	sw	a1,2560(a0)
  OC1CONbits.ON = 1;       // turn on OC1
9d004594:	8c443000 	lw	a0,12288(v0)
9d004598:	7c647bc4 	ins	a0,v1,0xf,0x1
9d00459c:	ac443000 	sw	a0,12288(v0)
//********End PWM Set up*******

//*****configure RD1 as digital output******
  TRISDCLR=0b0010;    // set D1 as output
9d0045a0:	24040002 	li	a0,2
9d0045a4:	3c02bf88 	lui	v0,0xbf88
9d0045a8:	ac4460c4 	sw	a0,24772(v0)
  LATDbits.LATD1=1;   // initialize digital out pin RD1 high
9d0045ac:	3c02bf88 	lui	v0,0xbf88
9d0045b0:	8c4460e0 	lw	a0,24800(v0)
9d0045b4:	7c640844 	ins	a0,v1,0x1,0x1
9d0045b8:	ac4460e0 	sw	a0,24800(v0)
//********end RD1 configure****************
 

}
9d0045bc:	03e00008 	jr	ra
9d0045c0:	00000000 	nop

9d0045c4 <motor_pwm_set>:

 void motor_pwm_set(int duty_percent){   // Specifies the user's PWM value 
9d0045c4:	27bdffe0 	addiu	sp,sp,-32
9d0045c8:	afbf001c 	sw	ra,28(sp)
9d0045cc:	afb10018 	sw	s1,24(sp)
   int dc=0;
   if (duty_percent>=0) {
9d0045d0:	0480001c 	bltz	a0,9d004644 <motor_pwm_set+0x80>
9d0045d4:	afb00014 	sw	s0,20(sp)
     dc=((duty_percent)/100.0)*(PR3+1.0); // calculate what OC1RS should be
9d0045d8:	3c02bf80 	lui	v0,0xbf80
9d0045dc:	8c500a20 	lw	s0,2592(v0)
9d0045e0:	0f402649 	jal	9d009924 <__floatsisf>
9d0045e4:	00000000 	nop
9d0045e8:	00402021 	move	a0,v0
9d0045ec:	3c029d01 	lui	v0,0x9d01
9d0045f0:	0f401dbd 	jal	9d0076f4 <__divsf3>
9d0045f4:	8c459fb0 	lw	a1,-24656(v0)
9d0045f8:	00408821 	move	s1,v0
9d0045fc:	0f4026b9 	jal	9d009ae4 <__floatunsisf>
9d004600:	02002021 	move	a0,s0
9d004604:	00402021 	move	a0,v0
9d004608:	3c029d01 	lui	v0,0x9d01
9d00460c:	0f401d21 	jal	9d007484 <__addsf3>
9d004610:	8c459fb4 	lw	a1,-24652(v0)
9d004614:	02202021 	move	a0,s1
9d004618:	0f401fb6 	jal	9d007ed8 <__mulsf3>
9d00461c:	00402821 	move	a1,v0
9d004620:	0f402599 	jal	9d009664 <__fixsfsi>
9d004624:	00402021 	move	a0,v0
     LATDbits.LATD1=1;                    // based on input argument of function
9d004628:	3c03bf88 	lui	v1,0xbf88
9d00462c:	8c6460e0 	lw	a0,24800(v1)
9d004630:	24050001 	li	a1,1
9d004634:	7ca40844 	ins	a0,a1,0x1,0x1
9d004638:	ac6460e0 	sw	a0,24800(v1)
   }
   else {                                 //if duty cylce is negative make digital outpout high
     dc=((-duty_percent)/100.0)*(PR3+1.0);
     LATDbits.LATD1=0;
   }
  OC1RS=(unsigned int)dc; //set OC1RS by typecasting calculated value
9d00463c:	0b4011aa 	j	9d0046a8 <motor_pwm_set+0xe4>
9d004640:	3c03bf80 	lui	v1,0xbf80
   if (duty_percent>=0) {
     dc=((duty_percent)/100.0)*(PR3+1.0); // calculate what OC1RS should be
     LATDbits.LATD1=1;                    // based on input argument of function
   }
   else {                                 //if duty cylce is negative make digital outpout high
     dc=((-duty_percent)/100.0)*(PR3+1.0);
9d004644:	3c02bf80 	lui	v0,0xbf80
9d004648:	8c500a20 	lw	s0,2592(v0)
9d00464c:	0f402649 	jal	9d009924 <__floatsisf>
9d004650:	00042023 	negu	a0,a0
9d004654:	00402021 	move	a0,v0
9d004658:	3c029d01 	lui	v0,0x9d01
9d00465c:	0f401dbd 	jal	9d0076f4 <__divsf3>
9d004660:	8c459fb0 	lw	a1,-24656(v0)
9d004664:	00408821 	move	s1,v0
9d004668:	0f4026b9 	jal	9d009ae4 <__floatunsisf>
9d00466c:	02002021 	move	a0,s0
9d004670:	00402021 	move	a0,v0
9d004674:	3c029d01 	lui	v0,0x9d01
9d004678:	0f401d21 	jal	9d007484 <__addsf3>
9d00467c:	8c459fb4 	lw	a1,-24652(v0)
9d004680:	02202021 	move	a0,s1
9d004684:	0f401fb6 	jal	9d007ed8 <__mulsf3>
9d004688:	00402821 	move	a1,v0
9d00468c:	0f402599 	jal	9d009664 <__fixsfsi>
9d004690:	00402021 	move	a0,v0
     LATDbits.LATD1=0;
9d004694:	3c03bf88 	lui	v1,0xbf88
9d004698:	8c6460e0 	lw	a0,24800(v1)
9d00469c:	7c040844 	ins	a0,zero,0x1,0x1
9d0046a0:	ac6460e0 	sw	a0,24800(v1)
   }
  OC1RS=(unsigned int)dc; //set OC1RS by typecasting calculated value
9d0046a4:	3c03bf80 	lui	v1,0xbf80
9d0046a8:	ac623020 	sw	v0,12320(v1)
}
9d0046ac:	8fbf001c 	lw	ra,28(sp)
9d0046b0:	8fb10018 	lw	s1,24(sp)
9d0046b4:	8fb00014 	lw	s0,20(sp)
9d0046b8:	03e00008 	jr	ra
9d0046bc:	27bd0020 	addiu	sp,sp,32

9d0046c0 <motor_amps_set>:

void motor_amps_set(int amps){            // specifies the motor current reference, in milliamps
   REFcurrent= amps;
9d0046c0:	af848074 	sw	a0,-32652(gp)
 }
9d0046c4:	03e00008 	jr	ra
9d0046c8:	00000000 	nop

9d0046cc <Current_Controller>:
volatile int REFcurrent;    //this is the current value that the control is trying to track in TUNE or TRACK mode

static int control_law(control_data d); //function prototype of local helper function that calculates the control

//*************5kHz interrupt to update Current/PWM*************
void __ISR(_TIMER_2_VECTOR, IPL5SOFT) Current_Controller(void) { // _TIMER_2_VECTOR = 8 
9d0046cc:	415de800 	rdpgpr	sp,sp
9d0046d0:	401a7000 	mfc0	k0,c0_epc
9d0046d4:	401b6000 	mfc0	k1,c0_status
9d0046d8:	27bdff70 	addiu	sp,sp,-144
9d0046dc:	afba008c 	sw	k0,140(sp)
9d0046e0:	401a6002 	mfc0	k0,c0_srsctl
9d0046e4:	afbb0088 	sw	k1,136(sp)
9d0046e8:	afba0084 	sw	k0,132(sp)
9d0046ec:	7c1b7844 	ins	k1,zero,0x1,0xf
9d0046f0:	377b1400 	ori	k1,k1,0x1400
9d0046f4:	409b6000 	mtc0	k1,c0_status
9d0046f8:	afbf0074 	sw	ra,116(sp)
9d0046fc:	afb90070 	sw	t9,112(sp)
9d004700:	afb8006c 	sw	t8,108(sp)
9d004704:	afb00068 	sw	s0,104(sp)
9d004708:	afaf0064 	sw	t7,100(sp)
9d00470c:	afae0060 	sw	t6,96(sp)
9d004710:	afad005c 	sw	t5,92(sp)
9d004714:	afac0058 	sw	t4,88(sp)
9d004718:	afab0054 	sw	t3,84(sp)
9d00471c:	afaa0050 	sw	t2,80(sp)
9d004720:	afa9004c 	sw	t1,76(sp)
9d004724:	afa80048 	sw	t0,72(sp)
9d004728:	afa70044 	sw	a3,68(sp)
9d00472c:	afa60040 	sw	a2,64(sp)
9d004730:	afa5003c 	sw	a1,60(sp)
9d004734:	afa40038 	sw	a0,56(sp)
9d004738:	afa30034 	sw	v1,52(sp)
9d00473c:	afa20030 	sw	v0,48(sp)
9d004740:	afa1002c 	sw	at,44(sp)
9d004744:	00001012 	mflo	v0
9d004748:	afa2007c 	sw	v0,124(sp)
9d00474c:	00001810 	mfhi	v1
9d004750:	afa30078 	sw	v1,120(sp)
        
      switch(util_state_get()) {
9d004754:	0f402025 	jal	9d008094 <util_state_get>
9d004758:	00000000 	nop
9d00475c:	24030001 	li	v1,1
9d004760:	1043000d 	beq	v0,v1,9d004798 <.LBB2+0x10>
9d004764:	00000000 	nop
9d004768:	10400007 	beqz	v0,9d004788 <.LBB2>
9d00476c:	24030002 	li	v1,2
9d004770:	1043000d 	beq	v0,v1,9d0047a8 <.LBB2+0x20>
9d004774:	24030003 	li	v1,3
9d004778:	54430045 	bnel	v0,v1,9d004890 <.LBE3+0x44>
9d00477c:	3c02bf88 	lui	v0,0xbf88
9d004780:	0b401213 	j	9d00484c <.LBE3>
9d004784:	00000000 	nop

9d004788 <.LBB2>:
      case IDLE:
        motor_pwm_set(0); //set PWM to 0
9d004788:	0f401171 	jal	9d0045c4 <motor_pwm_set>
9d00478c:	00002021 	move	a0,zero
       break;
9d004790:	0b401228 	j	9d0048a0 <.LBE2+0x4>
9d004794:	3c02bf88 	lui	v0,0xbf88
      case PWM:
        motor_pwm_set(DutyCycle);  // set PWM to user specified value
9d004798:	0f401171 	jal	9d0045c4 <motor_pwm_set>
9d00479c:	8f848020 	lw	a0,-32736(gp)
      break;
9d0047a0:	0b401228 	j	9d0048a0 <.LBE2+0x4>
9d0047a4:	3c02bf88 	lui	v0,0xbf88
      case TUNE: ;
          control_data tune;
        if(StoringData){ 
9d0047a8:	8f82804c 	lw	v0,-32692(gp)
9d0047ac:	1040003b 	beqz	v0,9d00489c <.LBE2>
9d0047b0:	8f828010 	lw	v0,-32752(gp)

9d0047b4 <.LBB3>:
         static int counter = -1;               // initialize counter once
           counter++;                           // add one to counter every time ISR is entered
9d0047b4:	24420001 	addiu	v0,v0,1
         if (counter==50) counter = 0;  // roll over counter every 50 ISR cycles (100Hz)
9d0047b8:	24030032 	li	v1,50
9d0047bc:	14430003 	bne	v0,v1,9d0047cc <.LBB3+0x18>
9d0047c0:	af828010 	sw	v0,-32752(gp)
9d0047c4:	0b4011f6 	j	9d0047d8 <.LBB3+0x24>
9d0047c8:	af808010 	sw	zero,-32752(gp)
         if (counter<25) motor_amps_set(200); //create 100Hz-200mA square wave reference signal
9d0047cc:	28420019 	slti	v0,v0,25
9d0047d0:	10400005 	beqz	v0,9d0047e8 <.LBB3+0x34>
9d0047d4:	00000000 	nop
9d0047d8:	0f4011b0 	jal	9d0046c0 <motor_amps_set>
9d0047dc:	240400c8 	li	a0,200
9d0047e0:	0b4011fc 	j	9d0047f0 <.LBB3+0x3c>
9d0047e4:	00000000 	nop
           else motor_amps_set(-200);
9d0047e8:	0f4011b0 	jal	9d0046c0 <motor_amps_set>
9d0047ec:	2404ff38 	li	a0,-200
         tune.reference=REFcurrent;          //set reference
9d0047f0:	8f828074 	lw	v0,-32652(gp)
         tune.sensor = isense_amps();        //get sensed data
9d0047f4:	0f402275 	jal	9d0089d4 <isense_amps>
9d0047f8:	afa20010 	sw	v0,16(sp)
9d0047fc:	afa20014 	sw	v0,20(sp)
9d004800:	00003021 	move	a2,zero
9d004804:	afa60018 	sw	a2,24(sp)
         tune.control = control_law(tune);   //calculate control
9d004808:	8fa40010 	lw	a0,16(sp)
9d00480c:	0f4010f5 	jal	9d0043d4 <control_law>
9d004810:	00402821 	move	a1,v0
9d004814:	0f402649 	jal	9d009924 <__floatsisf>
9d004818:	00402021 	move	a0,v0
9d00481c:	00408021 	move	s0,v0
9d004820:	afa20018 	sw	v0,24(sp)
         util_buffer_write(tune);            //write control_data to buffer
9d004824:	8fa40010 	lw	a0,16(sp)
9d004828:	8fa50014 	lw	a1,20(sp)
9d00482c:	0f402034 	jal	9d0080d0 <util_buffer_write>
9d004830:	00403021 	move	a2,v0
         motor_pwm_set(tune.control);        //set PWM based on control law
9d004834:	0f402599 	jal	9d009664 <__fixsfsi>
9d004838:	02002021 	move	a0,s0
9d00483c:	0f401171 	jal	9d0045c4 <motor_pwm_set>
9d004840:	00402021 	move	a0,v0
      break;
      default:
       //error, unknown state
       NU32_LED2 = 0;
     }
   IFS0bits.T2IF = 0;              // clear interrupt flag
9d004844:	0b401228 	j	9d0048a0 <.LBE2+0x4>
9d004848:	3c02bf88 	lui	v0,0xbf88

9d00484c <.LBE3>:
        }
              
      break;
      case TRACK: ;
          control_data track;      
          track.reference = REFcurrent;       //reference current set in position.c
9d00484c:	8f828074 	lw	v0,-32652(gp)
          track.sensor = isense_amps();       //get sensor data
9d004850:	0f402275 	jal	9d0089d4 <isense_amps>
9d004854:	afa2001c 	sw	v0,28(sp)
9d004858:	afa20020 	sw	v0,32(sp)
9d00485c:	00003021 	move	a2,zero
9d004860:	afa60024 	sw	a2,36(sp)
          track.control = control_law(track); //calculate control effort
9d004864:	8fa4001c 	lw	a0,28(sp)
9d004868:	0f4010f5 	jal	9d0043d4 <control_law>
9d00486c:	00402821 	move	a1,v0
9d004870:	0f402649 	jal	9d009924 <__floatsisf>
9d004874:	00402021 	move	a0,v0
          motor_pwm_set(track.control);       //set PWM based on control law
9d004878:	0f402599 	jal	9d009664 <__fixsfsi>
9d00487c:	00402021 	move	a0,v0
9d004880:	0f401171 	jal	9d0045c4 <motor_pwm_set>
9d004884:	00402021 	move	a0,v0
      break;
9d004888:	0b401228 	j	9d0048a0 <.LBE2+0x4>
9d00488c:	3c02bf88 	lui	v0,0xbf88
      default:
       //error, unknown state
       NU32_LED2 = 0;
9d004890:	8c436020 	lw	v1,24608(v0)
9d004894:	7c032944 	ins	v1,zero,0x5,0x1
9d004898:	ac436020 	sw	v1,24608(v0)

9d00489c <.LBE2>:
     }
   IFS0bits.T2IF = 0;              // clear interrupt flag
9d00489c:	3c02bf88 	lui	v0,0xbf88
9d0048a0:	8c431030 	lw	v1,4144(v0)
9d0048a4:	7c034204 	ins	v1,zero,0x8,0x1
9d0048a8:	ac431030 	sw	v1,4144(v0)
}
9d0048ac:	8fa2007c 	lw	v0,124(sp)
9d0048b0:	00400013 	mtlo	v0
9d0048b4:	8fa30078 	lw	v1,120(sp)
9d0048b8:	00600011 	mthi	v1
9d0048bc:	8fbf0074 	lw	ra,116(sp)
9d0048c0:	8fb90070 	lw	t9,112(sp)
9d0048c4:	8fb8006c 	lw	t8,108(sp)
9d0048c8:	8fb00068 	lw	s0,104(sp)
9d0048cc:	8faf0064 	lw	t7,100(sp)
9d0048d0:	8fae0060 	lw	t6,96(sp)
9d0048d4:	8fad005c 	lw	t5,92(sp)
9d0048d8:	8fac0058 	lw	t4,88(sp)
9d0048dc:	8fab0054 	lw	t3,84(sp)
9d0048e0:	8faa0050 	lw	t2,80(sp)
9d0048e4:	8fa9004c 	lw	t1,76(sp)
9d0048e8:	8fa80048 	lw	t0,72(sp)
9d0048ec:	8fa70044 	lw	a3,68(sp)
9d0048f0:	8fa60040 	lw	a2,64(sp)
9d0048f4:	8fa5003c 	lw	a1,60(sp)
9d0048f8:	8fa40038 	lw	a0,56(sp)
9d0048fc:	8fa30034 	lw	v1,52(sp)
9d004900:	8fa20030 	lw	v0,48(sp)
9d004904:	8fa1002c 	lw	at,44(sp)
9d004908:	41606000 	di
9d00490c:	000000c0 	ehb
9d004910:	8fba008c 	lw	k0,140(sp)
9d004914:	8fbb0088 	lw	k1,136(sp)
9d004918:	409a7000 	mtc0	k0,c0_epc
9d00491c:	8fba0084 	lw	k0,132(sp)
9d004920:	27bd0090 	addiu	sp,sp,144
9d004924:	409a6002 	mtc0	k0,c0_srsctl
9d004928:	41dde800 	wrpgpr	sp,sp
9d00492c:	409b6000 	mtc0	k1,c0_status
9d004930:	42000018 	eret

9d004934 <motor_gains_read>:

void motor_amps_set(int amps){            // specifies the motor current reference, in milliamps
   REFcurrent= amps;
 }

PID_gains motor_gains_read(void){                  // send gains to the client
9d004934:	00801021 	move	v0,a0
 PID_gains motortemp;
 motortemp.Kp=Kp_m;
9d004938:	8f858024 	lw	a1,-32732(gp)
 motortemp.Ki=Ki_m;
9d00493c:	8f838028 	lw	v1,-32728(gp)
9d004940:	ac450000 	sw	a1,0(v0)
9d004944:	ac430004 	sw	v1,4(v0)
9d004948:	00001821 	move	v1,zero
 motortemp.Kd=0;
return motortemp;
}
9d00494c:	03e00008 	jr	ra
9d004950:	ac430008 	sw	v1,8(v0)

9d004954 <motor_control_reset>:
    motor_control_reset();        //reset Eint
  __builtin_enable_interrupts();  //3 simple C commands while ISRs diabled
}

void motor_control_reset(void){  //helper function to clear Eint when tracking a new reference signal
  __builtin_disable_interrupts(); //keep ISR disabled as brifly as possible
9d004954:	41626000 	di	v0
9d004958:	000000c0 	ehb
    Eint=0;
9d00495c:	af808070 	sw	zero,-32656(gp)
  __builtin_enable_interrupts();  //3 simple C commands while ISRs diabled
9d004960:	41626020 	ei	v0
}
9d004964:	03e00008 	jr	ra
9d004968:	00000000 	nop

9d00496c <motor_gains_write>:
 motortemp.Ki=Ki_m;
 motortemp.Kd=0;
return motortemp;
}

void motor_gains_write(PID_gains motor){                 // read the motor gains from the client
9d00496c:	27bdffe8 	addiu	sp,sp,-24
9d004970:	afbf0014 	sw	ra,20(sp)
9d004974:	00801021 	move	v0,a0
9d004978:	afa40018 	sw	a0,24(sp)
9d00497c:	00a01821 	move	v1,a1
9d004980:	afa5001c 	sw	a1,28(sp)
9d004984:	afa60020 	sw	a2,32(sp)
  __builtin_disable_interrupts(); //keep ISR disabled as brifly as possible
9d004988:	41646000 	di	a0
9d00498c:	000000c0 	ehb
    Kp_m = motor.Kp;                    //copy local variables to globals used by ISR
9d004990:	af828024 	sw	v0,-32732(gp)
    Ki_m = motor.Ki; 
9d004994:	af838028 	sw	v1,-32728(gp)
    motor_control_reset();        //reset Eint
9d004998:	0f401255 	jal	9d004954 <motor_control_reset>
9d00499c:	00000000 	nop
  __builtin_enable_interrupts();  //3 simple C commands while ISRs diabled
9d0049a0:	41626020 	ei	v0
}
9d0049a4:	8fbf0014 	lw	ra,20(sp)
9d0049a8:	03e00008 	jr	ra
9d0049ac:	27bd0018 	addiu	sp,sp,24

Disassembly of section .text.dp32mul:

9d0049b0 <__divdf3>:
9d0049b0:	00055040 000a5542 00054ac0 00047d42     @P..BU...J..B}..
9d0049c0:	012f4825 000442c0 3c0e8000 012e4825     %H/..B.....<%H..
9d0049d0:	00076840 000d6d42 000762c0 00067d42     @h..Bm...b..B}..
9d0049e0:	018f6025 00065ac0 018e6025 00a72826     %`...Z..%`..&(..
9d0049f0:	00ae2824 254fffff 2de107fe 102000cb     $(....O%...-.. .
9d004a00:	00000000                                ....

9d004a04 <Dlab1>:
9d004a04:	25afffff 	addiu	t7,t5,-1
9d004a08:	2de107fe 	sltiu	at,t7,2046
9d004a0c:	102000f4 	beqz	at,9d004de0 <DspecB>
9d004a10:	00000000 	nop

9d004a14 <Dlab2>:
9d004a14:	014d5023 	subu	t2,t2,t5
9d004a18:	254a03ff 	addiu	t2,t2,1023
9d004a1c:	00084042 	srl	t0,t0,0x1
9d004a20:	00097fc0 	sll	t7,t1,0x1f
9d004a24:	010f4025 	or	t0,t0,t7
9d004a28:	00094842 	srl	t1,t1,0x1
9d004a2c:	000c3c02 	srl	a3,t4,0x10
9d004a30:	00e001f4 	teq	a3,zero,0x7
9d004a34:	0127001b 	divu	zero,t1,a3
9d004a38:	00007012 	mflo	t6
9d004a3c:	00004810 	mfhi	t1
9d004a40:	3186ffff 	andi	a2,t4,0xffff
9d004a44:	00ce0019 	multu	a2,t6
9d004a48:	00002012 	mflo	a0
9d004a4c:	00094c00 	sll	t1,t1,0x10
9d004a50:	00087c02 	srl	t7,t0,0x10
9d004a54:	012f4825 	or	t1,t1,t7
9d004a58:	0124782b 	sltu	t7,t1,a0
9d004a5c:	11e00006 	beqz	t7,9d004a78 <i20>
9d004a60:	01244823 	subu	t1,t1,a0

9d004a64 <b21>:
9d004a64:	25ceffff 	addiu	t6,t6,-1
9d004a68:	012c4821 	addu	t1,t1,t4
9d004a6c:	012c082b 	sltu	at,t1,t4
9d004a70:	1020fffc 	beqz	at,9d004a64 <b21>
9d004a74:	00000000 	nop

9d004a78 <i20>:
9d004a78:	00e001f4 	teq	a3,zero,0x7
9d004a7c:	0127001b 	divu	zero,t1,a3
9d004a80:	00003812 	mflo	a3
9d004a84:	00004810 	mfhi	t1
9d004a88:	00c70019 	multu	a2,a3
9d004a8c:	00002012 	mflo	a0
9d004a90:	00094c00 	sll	t1,t1,0x10
9d004a94:	310fffff 	andi	t7,t0,0xffff
9d004a98:	012f4825 	or	t1,t1,t7
9d004a9c:	0124782b 	sltu	t7,t1,a0
9d004aa0:	11e00006 	beqz	t7,9d004abc <i22>
9d004aa4:	01244823 	subu	t1,t1,a0

9d004aa8 <b23>:
9d004aa8:	24e7ffff 	addiu	a3,a3,-1
9d004aac:	012c4821 	addu	t1,t1,t4
9d004ab0:	012c082b 	sltu	at,t1,t4
9d004ab4:	1020fffc 	beqz	at,9d004aa8 <b23>
9d004ab8:	00000000 	nop

9d004abc <i22>:
9d004abc:	000e7400 	sll	t6,t6,0x10
9d004ac0:	01c77021 	addu	t6,t6,a3
9d004ac4:	01cb0019 	multu	t6,t3
9d004ac8:	00003812 	mflo	a3
9d004acc:	00002010 	mfhi	a0
9d004ad0:	24080000 	li	t0,0
9d004ad4:	0107782b 	sltu	t7,t0,a3
9d004ad8:	01074023 	subu	t0,t0,a3
9d004adc:	012f102b 	sltu	v0,t1,t7
9d004ae0:	012f4823 	subu	t1,t1,t7
9d004ae4:	0124782b 	sltu	t7,t1,a0
9d004ae8:	01e27825 	or	t7,t7,v0
9d004aec:	11e0000b 	beqz	t7,9d004b1c <i24>
9d004af0:	01244823 	subu	t1,t1,a0

9d004af4 <Dlab3>:
9d004af4:	25ceffff 	addiu	t6,t6,-1
9d004af8:	010b4021 	addu	t0,t0,t3
9d004afc:	010b782b 	sltu	t7,t0,t3
9d004b00:	012c4821 	addu	t1,t1,t4
9d004b04:	012f4821 	addu	t1,t1,t7
9d004b08:	112c0002 	beq	t1,t4,9d004b14 <L31>
9d004b0c:	00000000 	nop
9d004b10:	012c782b 	sltu	t7,t1,t4

9d004b14 <L31>:
9d004b14:	11e0fff7 	beqz	t7,9d004af4 <Dlab3>
9d004b18:	00000000 	nop

9d004b1c <i24>:
9d004b1c:	152c0006 	bne	t1,t4,9d004b38 <i25>
9d004b20:	00000000 	nop
9d004b24:	000b2025 	or	a0,zero,t3
9d004b28:	00084825 	or	t1,zero,t0
9d004b2c:	240d0000 	li	t5,0
9d004b30:	1000002a 	b	9d004bdc <e25>
9d004b34:	000d3825 	or	a3,zero,t5

9d004b38 <i25>:
9d004b38:	000c3c02 	srl	a3,t4,0x10
9d004b3c:	00e001f4 	teq	a3,zero,0x7
9d004b40:	0127001b 	divu	zero,t1,a3
9d004b44:	00006812 	mflo	t5
9d004b48:	00004810 	mfhi	t1
9d004b4c:	3186ffff 	andi	a2,t4,0xffff
9d004b50:	00cd0019 	multu	a2,t5
9d004b54:	00002012 	mflo	a0
9d004b58:	00094c00 	sll	t1,t1,0x10
9d004b5c:	00087c02 	srl	t7,t0,0x10
9d004b60:	012f4825 	or	t1,t1,t7
9d004b64:	0124782b 	sltu	t7,t1,a0
9d004b68:	11e00006 	beqz	t7,9d004b84 <i26>
9d004b6c:	01244823 	subu	t1,t1,a0

9d004b70 <b27>:
9d004b70:	25adffff 	addiu	t5,t5,-1
9d004b74:	012c4821 	addu	t1,t1,t4
9d004b78:	012c082b 	sltu	at,t1,t4
9d004b7c:	1020fffc 	beqz	at,9d004b70 <b27>
9d004b80:	00000000 	nop

9d004b84 <i26>:
9d004b84:	00e001f4 	teq	a3,zero,0x7
9d004b88:	0127001b 	divu	zero,t1,a3
9d004b8c:	00003812 	mflo	a3
9d004b90:	00004810 	mfhi	t1
9d004b94:	00c70019 	multu	a2,a3
9d004b98:	00002012 	mflo	a0
9d004b9c:	00094c00 	sll	t1,t1,0x10
9d004ba0:	310fffff 	andi	t7,t0,0xffff
9d004ba4:	012f4825 	or	t1,t1,t7
9d004ba8:	0124782b 	sltu	t7,t1,a0
9d004bac:	11e00006 	beqz	t7,9d004bc8 <i28>
9d004bb0:	01244823 	subu	t1,t1,a0

9d004bb4 <b29>:
9d004bb4:	24e7ffff 	addiu	a3,a3,-1
9d004bb8:	012c4821 	addu	t1,t1,t4
9d004bbc:	012c082b 	sltu	at,t1,t4
9d004bc0:	1020fffc 	beqz	at,9d004bb4 <b29>
9d004bc4:	00000000 	nop

9d004bc8 <i28>:
9d004bc8:	000d6c00 	sll	t5,t5,0x10
9d004bcc:	01a76821 	addu	t5,t5,a3
9d004bd0:	01ab0019 	multu	t5,t3
9d004bd4:	00003812 	mflo	a3
9d004bd8:	00002010 	mfhi	a0

9d004bdc <e25>:
9d004bdc:	24080000 	li	t0,0
9d004be0:	0107782b 	sltu	t7,t0,a3
9d004be4:	01074023 	subu	t0,t0,a3
9d004be8:	012f102b 	sltu	v0,t1,t7
9d004bec:	012f4823 	subu	t1,t1,t7
9d004bf0:	0124782b 	sltu	t7,t1,a0
9d004bf4:	01e27825 	or	t7,t7,v0
9d004bf8:	11e0000b 	beqz	t7,9d004c28 <i30>
9d004bfc:	01244823 	subu	t1,t1,a0

9d004c00 <Dlab4>:
9d004c00:	25adffff 	addiu	t5,t5,-1
9d004c04:	010b4021 	addu	t0,t0,t3
9d004c08:	010b782b 	sltu	t7,t0,t3
9d004c0c:	012c4821 	addu	t1,t1,t4
9d004c10:	012f4821 	addu	t1,t1,t7
9d004c14:	112c0002 	beq	t1,t4,9d004c20 <L32>
9d004c18:	00000000 	nop
9d004c1c:	012c782b 	sltu	t7,t1,t4

9d004c20 <L32>:
9d004c20:	11e0fff7 	beqz	t7,9d004c00 <Dlab4>
9d004c24:	00000000 	nop

9d004c28 <i30>:
9d004c28:	05c00006 	bltz	t6,9d004c44 <i31>
9d004c2c:	00000000 	nop
9d004c30:	01a0782a 	slt	t7,t5,zero
9d004c34:	01ad6821 	addu	t5,t5,t5
9d004c38:	01ce7021 	addu	t6,t6,t6
9d004c3c:	01cf7021 	addu	t6,t6,t7
9d004c40:	254affff 	addiu	t2,t2,-1

9d004c44 <i31>:
9d004c44:	01287825 	or	t7,t1,t0
9d004c48:	11e00002 	beqz	t7,9d004c54 <i32>
9d004c4c:	00000000 	nop
9d004c50:	35ad0001 	ori	t5,t5,0x1

9d004c54 <i32>:
9d004c54:	000e4825 	or	t1,zero,t6
9d004c58:	000d4025 	or	t0,zero,t5
9d004c5c:	254fffff 	addiu	t7,t2,-1
9d004c60:	2de107fe 	sltiu	at,t7,2046
9d004c64:	10200015 	beqz	at,9d004cbc <Doveund>
9d004c68:	00000000 	nop
9d004c6c:	25080400 	addiu	t0,t0,1024
9d004c70:	2d0f0400 	sltiu	t7,t0,1024
9d004c74:	012f4821 	addu	t1,t1,t7
9d004c78:	012f782b 	sltu	t7,t1,t7
9d004c7c:	014f5021 	addu	t2,t2,t7

9d004c80 <Dlab8>:
9d004c80:	00087ac2 	srl	t7,t0,0xb
9d004c84:	31ef0001 	andi	t7,t7,0x1
9d004c88:	010f4023 	subu	t0,t0,t7
9d004c8c:	000822c2 	srl	a0,t0,0xb
9d004c90:	00097d40 	sll	t7,t1,0x15
9d004c94:	008f2025 	or	a0,a0,t7
9d004c98:	00097840 	sll	t7,t1,0x1
9d004c9c:	000f7b02 	srl	t7,t7,0xc
9d004ca0:	00af2825 	or	a1,a1,t7
9d004ca4:	000a7d00 	sll	t7,t2,0x14
9d004ca8:	00af2825 	or	a1,a1,t7

9d004cac <Dret>:
9d004cac:	00041025 	or	v0,zero,a0
9d004cb0:	00051825 	or	v1,zero,a1

9d004cb4 <D999>:
9d004cb4:	03e00008 	jr	ra
9d004cb8:	00000000 	nop

9d004cbc <Doveund>:
9d004cbc:	1d400044 	bgtz	t2,9d004dd0 <Dinf>
9d004cc0:	00000000 	nop
9d004cc4:	240e0001 	li	t6,1
9d004cc8:	01ca7023 	subu	t6,t6,t2

9d004ccc <L33>:
9d004ccc:	2dc10020 	sltiu	at,t6,32
9d004cd0:	14200007 	bnez	at,9d004cf0 <L34>
9d004cd4:	00000000 	nop
9d004cd8:	21ceffe0 	addi	t6,t6,-32
9d004cdc:	0008202b 	sltu	a0,zero,t0
9d004ce0:	1009000d 	beq	zero,t1,9d004d18 <L35>
9d004ce4:	01244025 	or	t0,t1,a0
9d004ce8:	1000fff8 	b	9d004ccc <L33>
9d004cec:	34090000 	li	t1,0x0

9d004cf0 <L34>:
9d004cf0:	11c00009 	beqz	t6,9d004d18 <L35>
9d004cf4:	00000000 	nop
9d004cf8:	000e3022 	neg	a2,t6
9d004cfc:	00c82004 	sllv	a0,t0,a2
9d004d00:	00c93004 	sllv	a2,t1,a2
9d004d04:	01c84006 	srlv	t0,t0,t6
9d004d08:	01c94806 	srlv	t1,t1,t6
9d004d0c:	10800002 	beqz	a0,9d004d18 <L35>
9d004d10:	00c84025 	or	t0,a2,t0
9d004d14:	35080002 	ori	t0,t0,0x2

9d004d18 <L35>:
9d004d18:	25080400 	addiu	t0,t0,1024
9d004d1c:	2d0f0400 	sltiu	t7,t0,1024
9d004d20:	012f4821 	addu	t1,t1,t7
9d004d24:	1000ffd6 	b	9d004c80 <Dlab8>
9d004d28:	000957c2 	srl	t2,t1,0x1f

9d004d2c <DspecA>:
9d004d2c:	0100782a 	slt	t7,t0,zero
9d004d30:	01084021 	addu	t0,t0,t0
9d004d34:	01294821 	addu	t1,t1,t1
9d004d38:	15400017 	bnez	t2,9d004d98 <i33>
9d004d3c:	012f4821 	addu	t1,t1,t7
9d004d40:	01287825 	or	t7,t1,t0
9d004d44:	11e00014 	beqz	t7,9d004d98 <i33>
9d004d48:	00000000 	nop
9d004d4c:	15200008 	bnez	t1,9d004d70 <L36>
9d004d50:	00000000 	nop
9d004d54:	15000003 	bnez	t0,9d004d64 <L37>
9d004d58:	00000000 	nop
9d004d5c:	1000ff29 	b	9d004a04 <Dlab1>
9d004d60:	240a0000 	li	t2,0

9d004d64 <L37>:
9d004d64:	01004825 	move	t1,t0
9d004d68:	24080000 	li	t0,0
9d004d6c:	254affe0 	addiu	t2,t2,-32

9d004d70 <L36>:
9d004d70:	712e7020 	clz	t6,t1
9d004d74:	11c0ff23 	beqz	t6,9d004a04 <Dlab1>
9d004d78:	00000000 	nop
9d004d7c:	014e5023 	subu	t2,t2,t6
9d004d80:	000e3022 	neg	a2,t6
9d004d84:	00c83006 	srlv	a2,t0,a2
9d004d88:	01c84004 	sllv	t0,t0,t6
9d004d8c:	01c94804 	sllv	t1,t1,t6
9d004d90:	1000ff1c 	b	9d004a04 <Dlab1>
9d004d94:	01264825 	or	t1,t1,a2

9d004d98 <i33>:
9d004d98:	154d0005 	bne	t2,t5,9d004db0 <i35>
9d004d9c:	00000000 	nop
9d004da0:	000c7840 	sll	t7,t4,0x1
9d004da4:	01eb7825 	or	t7,t7,t3
9d004da8:	11e0002b 	beqz	t7,9d004e58 <Dnan>
9d004dac:	00000000 	nop

9d004db0 <i35>:
9d004db0:	240107ff 	li	at,2047
9d004db4:	11a1000a 	beq	t5,at,9d004de0 <DspecB>
9d004db8:	00000000 	nop
9d004dbc:	1140ffbb 	beqz	t2,9d004cac <Dret>
9d004dc0:	00000000 	nop
9d004dc4:	01287825 	or	t7,t1,t0
9d004dc8:	15e00023 	bnez	t7,9d004e58 <Dnan>
9d004dcc:	00000000 	nop

9d004dd0 <Dinf>:
9d004dd0:	3c017ff0 	lui	at,0x7ff0
9d004dd4:	00a12825 	or	a1,a1,at
9d004dd8:	1000ffb4 	b	9d004cac <Dret>
9d004ddc:	24040000 	li	a0,0

9d004de0 <DspecB>:
9d004de0:	0160782a 	slt	t7,t3,zero
9d004de4:	016b5821 	addu	t3,t3,t3
9d004de8:	018c6021 	addu	t4,t4,t4
9d004dec:	15a00017 	bnez	t5,9d004e4c <i36>
9d004df0:	018f6021 	addu	t4,t4,t7
9d004df4:	018b7825 	or	t7,t4,t3
9d004df8:	11e0fff5 	beqz	t7,9d004dd0 <Dinf>
9d004dfc:	00000000 	nop
9d004e00:	15800008 	bnez	t4,9d004e24 <L39>
9d004e04:	00000000 	nop
9d004e08:	15600003 	bnez	t3,9d004e18 <L40>
9d004e0c:	00000000 	nop
9d004e10:	1000ff00 	b	9d004a14 <Dlab2>
9d004e14:	240d0000 	li	t5,0

9d004e18 <L40>:
9d004e18:	01606025 	move	t4,t3
9d004e1c:	240b0000 	li	t3,0
9d004e20:	25adffe0 	addiu	t5,t5,-32

9d004e24 <L39>:
9d004e24:	718e7020 	clz	t6,t4
9d004e28:	11c0fefa 	beqz	t6,9d004a14 <Dlab2>
9d004e2c:	00000000 	nop
9d004e30:	01ae6823 	subu	t5,t5,t6
9d004e34:	000e3022 	neg	a2,t6
9d004e38:	00cb3006 	srlv	a2,t3,a2
9d004e3c:	01cb5804 	sllv	t3,t3,t6
9d004e40:	01cc6004 	sllv	t4,t4,t6
9d004e44:	1000fef3 	b	9d004a14 <Dlab2>
9d004e48:	01866025 	or	t4,t4,a2

9d004e4c <i36>:
9d004e4c:	018b7825 	or	t7,t4,t3
9d004e50:	11e00002 	beqz	t7,9d004e5c <i38>
9d004e54:	00000000 	nop

9d004e58 <Dnan>:
9d004e58:	3c05fff8 	lui	a1,0xfff8

9d004e5c <i38>:
9d004e5c:	1000ff93 	b	9d004cac <Dret>
9d004e60:	24040000 	li	a0,0
9d004e64:	00000000 	nop

Disassembly of section .text:

9d004e68 <Position_Controller>:
//internal helper function prototype
static int pos_control_law(control_data p); // 


//*************5kHz interrupt to update Current/PWM*************
void __ISR(_TIMER_4_VECTOR, IPL7SRS) Position_Controller(void) { //_TIMER_4_VECTOR = 16 
9d004e68:	415de800 	rdpgpr	sp,sp
9d004e6c:	401a7000 	mfc0	k0,c0_epc
9d004e70:	401b6000 	mfc0	k1,c0_status
9d004e74:	27bdffb0 	addiu	sp,sp,-80
9d004e78:	afbb004c 	sw	k1,76(sp)
9d004e7c:	7c1b7844 	ins	k1,zero,0x1,0xf
9d004e80:	377b1c00 	ori	k1,k1,0x1c00
9d004e84:	409b6000 	mtc0	k1,c0_status
9d004e88:	afbf003c 	sw	ra,60(sp)
9d004e8c:	afb50038 	sw	s5,56(sp)
9d004e90:	afb40034 	sw	s4,52(sp)
9d004e94:	afb30030 	sw	s3,48(sp)
9d004e98:	afb2002c 	sw	s2,44(sp)
9d004e9c:	afb10028 	sw	s1,40(sp)
9d004ea0:	afb00024 	sw	s0,36(sp)
9d004ea4:	00001012 	mflo	v0
9d004ea8:	afa20044 	sw	v0,68(sp)
9d004eac:	00001810 	mfhi	v1
9d004eb0:	afa30040 	sw	v1,64(sp)
     
    control_data pos_control;
    if(util_state_get()==TRACK){
9d004eb4:	0f402025 	jal	9d008094 <util_state_get>
9d004eb8:	00000000 	nop
9d004ebc:	24030003 	li	v1,3
9d004ec0:	1443007c 	bne	v0,v1,9d0050b4 <Position_Controller+0x24c>
9d004ec4:	3c02bf88 	lui	v0,0xbf88
     pos_control.reference = Trajectory[Current];  //set the reference based on current index
9d004ec8:	8f838078 	lw	v1,-32648(gp)
9d004ecc:	00031880 	sll	v1,v1,0x2
9d004ed0:	3c02a000 	lui	v0,0xa000
9d004ed4:	244200a4 	addiu	v0,v0,164
9d004ed8:	00621021 	addu	v0,v1,v0
9d004edc:	8c500000 	lw	s0,0(v0)
     pos_control.sensor = encoder_angle();         //read encoder angle for comparison
9d004ee0:	0f4021e9 	jal	9d0087a4 <encoder_angle>
9d004ee4:	afb00010 	sw	s0,16(sp)
9d004ee8:	afa20014 	sw	v0,20(sp)
9d004eec:	00001821 	move	v1,zero
9d004ef0:	afa30018 	sw	v1,24(sp)
  __builtin_enable_interrupts();  
}

static int pos_control_law(control_data p){ //computes the control law
       static int e=0, edot=0,eprev=0, u=0;  
        e = p.reference - p.sensor;
9d004ef4:	02028023 	subu	s0,s0,v0
9d004ef8:	af908048 	sw	s0,-32696(gp)
        Eint_p = Eint_p + e;
9d004efc:	8f828080 	lw	v0,-32640(gp)
9d004f00:	02021021 	addu	v0,s0,v0
9d004f04:	af828080 	sw	v0,-32640(gp)
        if(Eint_p > Ki_p*500) Eint_p = Ki_p*500;   //integrator anti-wind up
9d004f08:	8f848080 	lw	a0,-32640(gp)
9d004f0c:	8f918034 	lw	s1,-32716(gp)
9d004f10:	0f402649 	jal	9d009924 <__floatsisf>
9d004f14:	00000000 	nop
9d004f18:	00409021 	move	s2,v0
9d004f1c:	02202021 	move	a0,s1
9d004f20:	3c029d01 	lui	v0,0x9d01
9d004f24:	0f401fb6 	jal	9d007ed8 <__mulsf3>
9d004f28:	8c459fa8 	lw	a1,-24664(v0)
9d004f2c:	00402021 	move	a0,v0
9d004f30:	0f402506 	jal	9d009418 <__eqsf2>
9d004f34:	02402821 	move	a1,s2
9d004f38:	04410008 	bgez	v0,9d004f5c <Position_Controller+0xf4>
9d004f3c:	00000000 	nop
9d004f40:	8f848034 	lw	a0,-32716(gp)
9d004f44:	3c029d01 	lui	v0,0x9d01
9d004f48:	0f401fb6 	jal	9d007ed8 <__mulsf3>
9d004f4c:	8c459fa8 	lw	a1,-24664(v0)
9d004f50:	0f402599 	jal	9d009664 <__fixsfsi>
9d004f54:	00402021 	move	a0,v0
9d004f58:	af828080 	sw	v0,-32640(gp)
        if(Eint_p < Ki_p*-500) Eint_p = Ki_p*-500; //limited based on KI and and control effort
9d004f5c:	8f848080 	lw	a0,-32640(gp)
9d004f60:	8f918034 	lw	s1,-32716(gp)
9d004f64:	0f402649 	jal	9d009924 <__floatsisf>
9d004f68:	00000000 	nop
9d004f6c:	00409021 	move	s2,v0
9d004f70:	02202021 	move	a0,s1
9d004f74:	3c029d01 	lui	v0,0x9d01
9d004f78:	0f401fb6 	jal	9d007ed8 <__mulsf3>
9d004f7c:	8c459fac 	lw	a1,-24660(v0)
9d004f80:	02402021 	move	a0,s2
9d004f84:	0f402506 	jal	9d009418 <__eqsf2>
9d004f88:	00402821 	move	a1,v0
9d004f8c:	04410009 	bgez	v0,9d004fb4 <Position_Controller+0x14c>
9d004f90:	8f918040 	lw	s1,-32704(gp)
9d004f94:	8f848034 	lw	a0,-32716(gp)
9d004f98:	3c029d01 	lui	v0,0x9d01
9d004f9c:	0f401fb6 	jal	9d007ed8 <__mulsf3>
9d004fa0:	8c459fac 	lw	a1,-24660(v0)
9d004fa4:	0f402599 	jal	9d009664 <__fixsfsi>
9d004fa8:	00402021 	move	a0,v0
9d004fac:	af828080 	sw	v0,-32640(gp)
        edot = e - eprev;
9d004fb0:	8f918040 	lw	s1,-32704(gp)
9d004fb4:	02118823 	subu	s1,s0,s1
9d004fb8:	af918044 	sw	s1,-32700(gp)
        eprev = e;
9d004fbc:	af908040 	sw	s0,-32704(gp)
        u = Kp_p*e + Ki_p*Eint_p + Kd_p*edot;
9d004fc0:	8f938030 	lw	s3,-32720(gp)
9d004fc4:	8f928080 	lw	s2,-32640(gp)
9d004fc8:	8f948034 	lw	s4,-32716(gp)
9d004fcc:	8f958038 	lw	s5,-32712(gp)
9d004fd0:	0f402649 	jal	9d009924 <__floatsisf>
9d004fd4:	02002021 	move	a0,s0
9d004fd8:	00402021 	move	a0,v0
9d004fdc:	0f401fb6 	jal	9d007ed8 <__mulsf3>
9d004fe0:	02602821 	move	a1,s3
9d004fe4:	00408021 	move	s0,v0
9d004fe8:	0f402649 	jal	9d009924 <__floatsisf>
9d004fec:	02402021 	move	a0,s2
9d004ff0:	00402021 	move	a0,v0
9d004ff4:	0f401fb6 	jal	9d007ed8 <__mulsf3>
9d004ff8:	02802821 	move	a1,s4
9d004ffc:	02002021 	move	a0,s0
9d005000:	0f401d21 	jal	9d007484 <__addsf3>
9d005004:	00402821 	move	a1,v0
9d005008:	00408021 	move	s0,v0
9d00500c:	0f402649 	jal	9d009924 <__floatsisf>
9d005010:	02202021 	move	a0,s1
9d005014:	00402021 	move	a0,v0
9d005018:	0f401fb6 	jal	9d007ed8 <__mulsf3>
9d00501c:	02a02821 	move	a1,s5
9d005020:	02002021 	move	a0,s0
9d005024:	0f401d21 	jal	9d007484 <__addsf3>
9d005028:	00402821 	move	a1,v0
9d00502c:	0f402599 	jal	9d009664 <__fixsfsi>
9d005030:	00402021 	move	a0,v0
        if (u > 500) u = 500; //saturate at -500mA and 500mA
9d005034:	284301f5 	slti	v1,v0,501
9d005038:	14600004 	bnez	v1,9d00504c <Position_Controller+0x1e4>
9d00503c:	af82803c 	sw	v0,-32708(gp)
9d005040:	240201f4 	li	v0,500
9d005044:	0b401417 	j	9d00505c <Position_Controller+0x1f4>
9d005048:	af82803c 	sw	v0,-32708(gp)
        if (u < -500) u = -500;
9d00504c:	2842fe0c 	slti	v0,v0,-500
9d005050:	10400002 	beqz	v0,9d00505c <Position_Controller+0x1f4>
9d005054:	2402fe0c 	li	v0,-500
9d005058:	af82803c 	sw	v0,-32708(gp)
     
    control_data pos_control;
    if(util_state_get()==TRACK){
     pos_control.reference = Trajectory[Current];  //set the reference based on current index
     pos_control.sensor = encoder_angle();         //read encoder angle for comparison
     pos_control.control = pos_control_law(pos_control);  //calculate control law based on postition error
9d00505c:	0f402649 	jal	9d009924 <__floatsisf>
9d005060:	8f84803c 	lw	a0,-32708(gp)
9d005064:	00408021 	move	s0,v0
     if (StoringData) util_buffer_write(pos_control);     //If the buffer is not full, write to the buffer
9d005068:	8f82804c 	lw	v0,-32692(gp)
9d00506c:	10400006 	beqz	v0,9d005088 <Position_Controller+0x220>
9d005070:	00000000 	nop
9d005074:	afb00018 	sw	s0,24(sp)
9d005078:	8fa40010 	lw	a0,16(sp)
9d00507c:	8fa50014 	lw	a1,20(sp)
9d005080:	0f402034 	jal	9d0080d0 <util_buffer_write>
9d005084:	02003021 	move	a2,s0
     motor_amps_set(pos_control.control);                //set the current reference of the current control loop
9d005088:	0f402599 	jal	9d009664 <__fixsfsi>
9d00508c:	02002021 	move	a0,s0
9d005090:	0f4011b0 	jal	9d0046c0 <motor_amps_set>
9d005094:	00402021 	move	a0,v0
     Current++;                                          //increment the index value
9d005098:	8f838078 	lw	v1,-32648(gp)
9d00509c:	24620001 	addiu	v0,v1,1
9d0050a0:	af828078 	sw	v0,-32648(gp)
     if(Current==RefLength)Current=Current-1; //hold at final angle
9d0050a4:	8f84807c 	lw	a0,-32644(gp)
9d0050a8:	50440001 	beql	v0,a0,9d0050b0 <Position_Controller+0x248>
9d0050ac:	af838078 	sw	v1,-32648(gp)
               
     }   
     
   IFS0bits.T4IF = 0;              // clear interrupt flag
9d0050b0:	3c02bf88 	lui	v0,0xbf88
9d0050b4:	8c431030 	lw	v1,4144(v0)
9d0050b8:	7c038404 	ins	v1,zero,0x10,0x1
9d0050bc:	ac431030 	sw	v1,4144(v0)
}
9d0050c0:	8fa20044 	lw	v0,68(sp)
9d0050c4:	00400013 	mtlo	v0
9d0050c8:	8fa30040 	lw	v1,64(sp)
9d0050cc:	00600011 	mthi	v1
9d0050d0:	8fbf003c 	lw	ra,60(sp)
9d0050d4:	8fb50038 	lw	s5,56(sp)
9d0050d8:	8fb40034 	lw	s4,52(sp)
9d0050dc:	8fb30030 	lw	s3,48(sp)
9d0050e0:	8fb2002c 	lw	s2,44(sp)
9d0050e4:	8fb10028 	lw	s1,40(sp)
9d0050e8:	8fb00024 	lw	s0,36(sp)
9d0050ec:	8fbb004c 	lw	k1,76(sp)
9d0050f0:	27bd0050 	addiu	sp,sp,80
9d0050f4:	41dde800 	wrpgpr	sp,sp
9d0050f8:	409b6000 	mtc0	k1,c0_status
9d0050fc:	42000018 	eret

9d005100 <position_init>:



void position_init(void){       // initializes the position module  and the necessary positions
//*******Set up Interrupt***************************
__builtin_disable_interrupts(); //disable interrupts at CPU
9d005100:	41626000 	di	v0
9d005104:	000000c0 	ehb
                                 
  PR4 = 24999;                  // set period register-200Hz(400k core ticks)
9d005108:	240361a7 	li	v1,24999
9d00510c:	3c02bf80 	lui	v0,0xbf80
9d005110:	ac430c20 	sw	v1,3104(v0)
  TMR4 = 0;                     // initialize count to 0
9d005114:	3c02bf80 	lui	v0,0xbf80
9d005118:	ac400c10 	sw	zero,3088(v0)
  T4CONbits.TCKPS =4;           // set prescaler to 16
9d00511c:	3c02bf80 	lui	v0,0xbf80
9d005120:	8c430c00 	lw	v1,3072(v0)
9d005124:	24040004 	li	a0,4
9d005128:	7c833104 	ins	v1,a0,0x4,0x3
9d00512c:	ac430c00 	sw	v1,3072(v0)
  T4CONbits.TGATE = 0;          //  not gated input (the default)
9d005130:	8c430c00 	lw	v1,3072(v0)
9d005134:	7c0339c4 	ins	v1,zero,0x7,0x1
9d005138:	ac430c00 	sw	v1,3072(v0)
  T4CONbits.TCS = 0;            // PCBLK input (the default)
9d00513c:	8c430c00 	lw	v1,3072(v0)
9d005140:	7c030844 	ins	v1,zero,0x1,0x1
9d005144:	ac430c00 	sw	v1,3072(v0)
  T4CONbits.ON = 1;             // turn on Timer4
9d005148:	8c440c00 	lw	a0,3072(v0)
9d00514c:	24030001 	li	v1,1
9d005150:	7c647bc4 	ins	a0,v1,0xf,0x1
9d005154:	ac440c00 	sw	a0,3072(v0)
  IPC4bits.T4IP = 7;            // priority higher than current control priority
9d005158:	3c02bf88 	lui	v0,0xbf88
9d00515c:	8c4410d0 	lw	a0,4304(v0)
9d005160:	24050007 	li	a1,7
9d005164:	7ca42084 	ins	a0,a1,0x2,0x3
9d005168:	ac4410d0 	sw	a0,4304(v0)
  IPC4bits.T4IS = 0;            // subpriority
9d00516c:	8c4410d0 	lw	a0,4304(v0)
9d005170:	7c040804 	ins	a0,zero,0x0,0x2
9d005174:	ac4410d0 	sw	a0,4304(v0)
  IFS0bits.T4IF = 0;            // clear interrupt flag
9d005178:	3c02bf88 	lui	v0,0xbf88
9d00517c:	8c441030 	lw	a0,4144(v0)
9d005180:	7c048404 	ins	a0,zero,0x10,0x1
9d005184:	ac441030 	sw	a0,4144(v0)
  IEC0bits.T4IE = 1;            // enable interrupt
9d005188:	3c02bf88 	lui	v0,0xbf88
9d00518c:	8c441060 	lw	a0,4192(v0)
9d005190:	7c648404 	ins	a0,v1,0x10,0x1
9d005194:	ac441060 	sw	a0,4192(v0)
 __builtin_enable_interrupts(); // enable interrupts at CPU
9d005198:	41626020 	ei	v0
//**************end Interrupt set up
//*****configure RD3 as digital output for debugging***
  TRISDbits.TRISD3=0;    // set D3 as output
9d00519c:	3c02bf88 	lui	v0,0xbf88
9d0051a0:	8c4460c0 	lw	a0,24768(v0)
9d0051a4:	7c0418c4 	ins	a0,zero,0x3,0x1
9d0051a8:	ac4460c0 	sw	a0,24768(v0)
  LATDbits.LATD3=1;   // initialize digital out pin RD1 high
9d0051ac:	3c02bf88 	lui	v0,0xbf88
9d0051b0:	8c4460e0 	lw	a0,24800(v0)
9d0051b4:	7c6418c4 	ins	a0,v1,0x3,0x1
9d0051b8:	ac4460e0 	sw	a0,24800(v0)
//********end RD3 configure****************
}
9d0051bc:	03e00008 	jr	ra
9d0051c0:	00000000 	nop

9d0051c4 <position_load>:

int position_load(void){        // load a trajectory from the client and return its length
9d0051c4:	27bdff10 	addiu	sp,sp,-240
9d0051c8:	afbf00ec 	sw	ra,236(sp)
9d0051cc:	afb200e8 	sw	s2,232(sp)
9d0051d0:	afb100e4 	sw	s1,228(sp)
9d0051d4:	afb000e0 	sw	s0,224(sp)
   char load[LOAD_SZ]; //message from MATLAB
    int i,x;           //declare index and temporary holder
     NU32_ReadUART1(load,LOAD_SZ);
9d0051d8:	27a40010 	addiu	a0,sp,16
9d0051dc:	0f401ae0 	jal	9d006b80 <.LFE23>
9d0051e0:	240500c8 	li	a1,200
     sscanf(load, "%d", &RefLength);   //read the length of the list coming from MATLAB
9d0051e4:	27a40010 	addiu	a0,sp,16
9d0051e8:	3c059d01 	lui	a1,0x9d01
9d0051ec:	24a59fa4 	addiu	a1,a1,-24668
9d0051f0:	0f402691 	jal	9d009a44 <_sscanf_cdfFnopuxX>
9d0051f4:	2786807c 	addiu	a2,gp,-32644
   for (i=0; i<RefLength; i++) {  //read reference data to Matlab
9d0051f8:	8f82807c 	lw	v0,-32644(gp)
9d0051fc:	18400013 	blez	v0,9d00524c <position_load+0x88>
9d005200:	3c10a000 	lui	s0,0xa000
9d005204:	261000a4 	addiu	s0,s0,164
9d005208:	00008821 	move	s1,zero
    NU32_ReadUART1(load,LOAD_SZ);
     sscanf(load, "%d", &x);      //read in one value at a tiem to temporary x
9d00520c:	3c129d01 	lui	s2,0x9d01
9d005210:	26529fa4 	addiu	s2,s2,-24668
   char load[LOAD_SZ]; //message from MATLAB
    int i,x;           //declare index and temporary holder
     NU32_ReadUART1(load,LOAD_SZ);
     sscanf(load, "%d", &RefLength);   //read the length of the list coming from MATLAB
   for (i=0; i<RefLength; i++) {  //read reference data to Matlab
    NU32_ReadUART1(load,LOAD_SZ);
9d005214:	27a40010 	addiu	a0,sp,16
9d005218:	0f401ae0 	jal	9d006b80 <.LFE23>
9d00521c:	240500c8 	li	a1,200
     sscanf(load, "%d", &x);      //read in one value at a tiem to temporary x
9d005220:	27a40010 	addiu	a0,sp,16
9d005224:	02402821 	move	a1,s2
9d005228:	0f402691 	jal	9d009a44 <_sscanf_cdfFnopuxX>
9d00522c:	27a600d8 	addiu	a2,sp,216
     Trajectory[i]=x;             //write x to the reference array           
9d005230:	8fa200d8 	lw	v0,216(sp)
9d005234:	ae020000 	sw	v0,0(s0)
int position_load(void){        // load a trajectory from the client and return its length
   char load[LOAD_SZ]; //message from MATLAB
    int i,x;           //declare index and temporary holder
     NU32_ReadUART1(load,LOAD_SZ);
     sscanf(load, "%d", &RefLength);   //read the length of the list coming from MATLAB
   for (i=0; i<RefLength; i++) {  //read reference data to Matlab
9d005238:	26310001 	addiu	s1,s1,1
9d00523c:	8f82807c 	lw	v0,-32644(gp)
9d005240:	0222182a 	slt	v1,s1,v0
9d005244:	1460fff3 	bnez	v1,9d005214 <position_load+0x50>
9d005248:	26100004 	addiu	s0,s0,4
    NU32_ReadUART1(load,LOAD_SZ);
     sscanf(load, "%d", &x);      //read in one value at a tiem to temporary x
     Trajectory[i]=x;             //write x to the reference array           
    }  
 return RefLength;  
}
9d00524c:	8fbf00ec 	lw	ra,236(sp)
9d005250:	8fb200e8 	lw	s2,232(sp)
9d005254:	8fb100e4 	lw	s1,228(sp)
9d005258:	8fb000e0 	lw	s0,224(sp)
9d00525c:	03e00008 	jr	ra
9d005260:	27bd00f0 	addiu	sp,sp,240

9d005264 <position_reset>:

void position_reset(void){      // reset the current trajectory position
 Current=0;
}
9d005264:	03e00008 	jr	ra
9d005268:	af808078 	sw	zero,-32648(gp)

9d00526c <position_gains_read>:

PID_gains position_gains_read(void){ // read the position gains from the client
9d00526c:	00801021 	move	v0,a0
  PID_gains pos_temp;
   pos_temp.Kp=Kp_p;
9d005270:	8f868030 	lw	a2,-32720(gp)
   pos_temp.Ki=Ki_p;
9d005274:	8f858034 	lw	a1,-32716(gp)
   pos_temp.Kd=Kd_p;
9d005278:	8f838038 	lw	v1,-32712(gp)
9d00527c:	ac460000 	sw	a2,0(v0)
9d005280:	ac450004 	sw	a1,4(v0)
return pos_temp;
}
9d005284:	03e00008 	jr	ra
9d005288:	ac430008 	sw	v1,8(v0)

9d00528c <position_control_reset>:
    position_control_reset();      //reset Eint_p
  __builtin_enable_interrupts();  
}

void position_control_reset(void){  //helper function to clear Eint_p
  __builtin_disable_interrupts(); //ISR disabled 
9d00528c:	41626000 	di	v0
9d005290:	000000c0 	ehb
    Eint_p=0;
9d005294:	af808080 	sw	zero,-32640(gp)
  __builtin_enable_interrupts();  
9d005298:	41626020 	ei	v0
}
9d00529c:	03e00008 	jr	ra
9d0052a0:	00000000 	nop

9d0052a4 <position_gains_send>:
   pos_temp.Ki=Ki_p;
   pos_temp.Kd=Kd_p;
return pos_temp;
}

void position_gains_send(PID_gains position){ // send the position gains to the client
9d0052a4:	27bdffe8 	addiu	sp,sp,-24
9d0052a8:	afbf0014 	sw	ra,20(sp)
9d0052ac:	00801021 	move	v0,a0
9d0052b0:	afa40018 	sw	a0,24(sp)
9d0052b4:	00a01821 	move	v1,a1
9d0052b8:	afa5001c 	sw	a1,28(sp)
9d0052bc:	afa60020 	sw	a2,32(sp)
__builtin_disable_interrupts(); //disable ISR
9d0052c0:	41656000 	di	a1
9d0052c4:	000000c0 	ehb
    Kp_p = position.Kp;            //copy local variables to globals used by ISR
9d0052c8:	af828030 	sw	v0,-32720(gp)
    Ki_p = position.Ki;
9d0052cc:	af838034 	sw	v1,-32716(gp)
    Kd_p = position.Kd; 
9d0052d0:	af868038 	sw	a2,-32712(gp)
    position_control_reset();      //reset Eint_p
9d0052d4:	0f4014a3 	jal	9d00528c <position_control_reset>
9d0052d8:	00000000 	nop
  __builtin_enable_interrupts();  
9d0052dc:	41626020 	ei	v0
}
9d0052e0:	8fbf0014 	lw	ra,20(sp)
9d0052e4:	03e00008 	jr	ra
9d0052e8:	27bd0018 	addiu	sp,sp,24

9d0052ec <__udivdi3>:
9d0052ec:	00c01021 	move	v0,a2
9d0052f0:	00804021 	move	t0,a0
9d0052f4:	14e0003f 	bnez	a3,9d0053f4 <__udivdi3+0x108>
9d0052f8:	00a01821 	move	v1,a1
9d0052fc:	00a6302b 	sltu	a2,a1,a2
9d005300:	10c0004c 	beqz	a2,9d005434 <__udivdi3+0x148>
9d005304:	00000000 	nop
9d005308:	70442020 	clz	a0,v0
9d00530c:	50800008 	beqzl	a0,9d005330 <__udivdi3+0x44>
9d005310:	00022402 	srl	a0,v0,0x10
9d005314:	00042823 	negu	a1,a0
9d005318:	00a82806 	srlv	a1,t0,a1
9d00531c:	00831804 	sllv	v1,v1,a0
9d005320:	00821004 	sllv	v0,v0,a0
9d005324:	00a31825 	or	v1,a1,v1
9d005328:	00884004 	sllv	t0,t0,a0
9d00532c:	00022402 	srl	a0,v0,0x10
9d005330:	0064001b 	divu	zero,v1,a0
9d005334:	008001f4 	teq	a0,zero,0x7
9d005338:	3049ffff 	andi	t1,v0,0xffff
9d00533c:	00085c02 	srl	t3,t0,0x10
9d005340:	00003812 	mflo	a3
9d005344:	00005010 	mfhi	t2
9d005348:	70e93002 	mul	a2,a3,t1
9d00534c:	000a2c00 	sll	a1,t2,0x10
9d005350:	00ab2825 	or	a1,a1,t3
9d005354:	00a6502b 	sltu	t2,a1,a2
9d005358:	0064001b 	divu	zero,v1,a0
9d00535c:	008001f4 	teq	a0,zero,0x7
9d005360:	1140000b 	beqz	t2,9d005390 <__udivdi3+0xa4>
9d005364:	00a61823 	subu	v1,a1,a2
9d005368:	00a22821 	addu	a1,a1,v0
9d00536c:	00a2182b 	sltu	v1,a1,v0
9d005370:	14600006 	bnez	v1,9d00538c <__udivdi3+0xa0>
9d005374:	24e7ffff 	addiu	a3,a3,-1
9d005378:	00a6182b 	sltu	v1,a1,a2
9d00537c:	10600004 	beqz	v1,9d005390 <__udivdi3+0xa4>
9d005380:	00a61823 	subu	v1,a1,a2
9d005384:	24e7ffff 	addiu	a3,a3,-1
9d005388:	00a22821 	addu	a1,a1,v0
9d00538c:	00a61823 	subu	v1,a1,a2
9d005390:	0064001b 	divu	zero,v1,a0
9d005394:	008001f4 	teq	a0,zero,0x7
9d005398:	3108ffff 	andi	t0,t0,0xffff
9d00539c:	00002812 	mflo	a1
9d0053a0:	00003010 	mfhi	a2
9d0053a4:	70a94802 	mul	t1,a1,t1
9d0053a8:	00063400 	sll	a2,a2,0x10
9d0053ac:	00c84025 	or	t0,a2,t0
9d0053b0:	0109302b 	sltu	a2,t0,t1
9d0053b4:	0064001b 	divu	zero,v1,a0
9d0053b8:	008001f4 	teq	a0,zero,0x7
9d0053bc:	10c00007 	beqz	a2,9d0053dc <__udivdi3+0xf0>
9d0053c0:	01024021 	addu	t0,t0,v0
9d0053c4:	0102102b 	sltu	v0,t0,v0
9d0053c8:	14400004 	bnez	v0,9d0053dc <__udivdi3+0xf0>
9d0053cc:	24a5ffff 	addiu	a1,a1,-1
9d0053d0:	0109482b 	sltu	t1,t0,t1
9d0053d4:	55200001 	bnezl	t1,9d0053dc <__udivdi3+0xf0>
9d0053d8:	24a5ffff 	addiu	a1,a1,-1
9d0053dc:	00073c00 	sll	a3,a3,0x10
9d0053e0:	00a72825 	or	a1,a1,a3
9d0053e4:	00002021 	move	a0,zero
9d0053e8:	00a01021 	move	v0,a1
9d0053ec:	03e00008 	jr	ra
9d0053f0:	00801821 	move	v1,a0
9d0053f4:	00a7102b 	sltu	v0,a1,a3
9d0053f8:	54400048 	bnezl	v0,9d00551c <__udivdi3+0x230>
9d0053fc:	00002021 	move	a0,zero
9d005400:	70e31820 	clz	v1,a3
9d005404:	14600049 	bnez	v1,9d00552c <__udivdi3+0x240>
9d005408:	240c0020 	li	t4,32
9d00540c:	00e5282b 	sltu	a1,a3,a1
9d005410:	14a00003 	bnez	a1,9d005420 <__udivdi3+0x134>
9d005414:	0086302b 	sltu	a2,a0,a2
9d005418:	14c00086 	bnez	a2,9d005634 <__udivdi3+0x348>
9d00541c:	00002021 	move	a0,zero
9d005420:	00002021 	move	a0,zero
9d005424:	24050001 	li	a1,1
9d005428:	00a01021 	move	v0,a1
9d00542c:	03e00008 	jr	ra
9d005430:	00801821 	move	v1,a0
9d005434:	14400006 	bnez	v0,9d005450 <__udivdi3+0x164>
9d005438:	70431820 	clz	v1,v0
9d00543c:	24030001 	li	v1,1
9d005440:	0062001b 	divu	zero,v1,v0
9d005444:	004001f4 	teq	v0,zero,0x7
9d005448:	00001012 	mflo	v0
9d00544c:	70431820 	clz	v1,v0
9d005450:	5460007b 	bnezl	v1,9d005640 <__udivdi3+0x354>
9d005454:	24080020 	li	t0,32
9d005458:	00a22823 	subu	a1,a1,v0
9d00545c:	00023402 	srl	a2,v0,0x10
9d005460:	3049ffff 	andi	t1,v0,0xffff
9d005464:	24040001 	li	a0,1
9d005468:	00a6001b 	divu	zero,a1,a2
9d00546c:	00c001f4 	teq	a2,zero,0x7
9d005470:	00086402 	srl	t4,t0,0x10
9d005474:	00003812 	mflo	a3
9d005478:	00005810 	mfhi	t3
9d00547c:	70e95002 	mul	t2,a3,t1
9d005480:	000b1c00 	sll	v1,t3,0x10
9d005484:	006c1825 	or	v1,v1,t4
9d005488:	006a582b 	sltu	t3,v1,t2
9d00548c:	00a6001b 	divu	zero,a1,a2
9d005490:	00c001f4 	teq	a2,zero,0x7
9d005494:	51600009 	beqzl	t3,9d0054bc <__udivdi3+0x1d0>
9d005498:	006a1823 	subu	v1,v1,t2
9d00549c:	00621821 	addu	v1,v1,v0
9d0054a0:	0062282b 	sltu	a1,v1,v0
9d0054a4:	14a00004 	bnez	a1,9d0054b8 <__udivdi3+0x1cc>
9d0054a8:	24e7ffff 	addiu	a3,a3,-1
9d0054ac:	006a282b 	sltu	a1,v1,t2
9d0054b0:	54a000a3 	bnezl	a1,9d005740 <__udivdi3+0x454>
9d0054b4:	24e7ffff 	addiu	a3,a3,-1
9d0054b8:	006a1823 	subu	v1,v1,t2
9d0054bc:	0066001b 	divu	zero,v1,a2
9d0054c0:	00c001f4 	teq	a2,zero,0x7
9d0054c4:	3108ffff 	andi	t0,t0,0xffff
9d0054c8:	00002812 	mflo	a1
9d0054cc:	00005010 	mfhi	t2
9d0054d0:	70a94802 	mul	t1,a1,t1
9d0054d4:	000a5400 	sll	t2,t2,0x10
9d0054d8:	01484025 	or	t0,t2,t0
9d0054dc:	0109502b 	sltu	t2,t0,t1
9d0054e0:	0066001b 	divu	zero,v1,a2
9d0054e4:	00c001f4 	teq	a2,zero,0x7
9d0054e8:	11400007 	beqz	t2,9d005508 <__udivdi3+0x21c>
9d0054ec:	01024021 	addu	t0,t0,v0
9d0054f0:	0102102b 	sltu	v0,t0,v0
9d0054f4:	14400004 	bnez	v0,9d005508 <__udivdi3+0x21c>
9d0054f8:	24a5ffff 	addiu	a1,a1,-1
9d0054fc:	0109482b 	sltu	t1,t0,t1
9d005500:	55200001 	bnezl	t1,9d005508 <__udivdi3+0x21c>
9d005504:	24a5ffff 	addiu	a1,a1,-1
9d005508:	00073c00 	sll	a3,a3,0x10
9d00550c:	00a72825 	or	a1,a1,a3
9d005510:	00a01021 	move	v0,a1
9d005514:	03e00008 	jr	ra
9d005518:	00801821 	move	v1,a0
9d00551c:	00002821 	move	a1,zero
9d005520:	00a01021 	move	v0,a1
9d005524:	03e00008 	jr	ra
9d005528:	00801821 	move	v1,a0
9d00552c:	01836023 	subu	t4,t4,v1
9d005530:	01864006 	srlv	t0,a2,t4
9d005534:	00673804 	sllv	a3,a3,v1
9d005538:	01074025 	or	t0,t0,a3
9d00553c:	00081402 	srl	v0,t0,0x10
9d005540:	01853806 	srlv	a3,a1,t4
9d005544:	00e2001b 	divu	zero,a3,v0
9d005548:	004001f4 	teq	v0,zero,0x7
9d00554c:	310dffff 	andi	t5,t0,0xffff
9d005550:	00652804 	sllv	a1,a1,v1
9d005554:	01846006 	srlv	t4,a0,t4
9d005558:	01856025 	or	t4,t4,a1
9d00555c:	000c4c02 	srl	t1,t4,0x10
9d005560:	00005812 	mflo	t3
9d005564:	00007810 	mfhi	t7
9d005568:	716d7002 	mul	t6,t3,t5
9d00556c:	000f5400 	sll	t2,t7,0x10
9d005570:	01495025 	or	t2,t2,t1
9d005574:	014e282b 	sltu	a1,t2,t6
9d005578:	00e2001b 	divu	zero,a3,v0
9d00557c:	004001f4 	teq	v0,zero,0x7
9d005580:	10a0000a 	beqz	a1,9d0055ac <__udivdi3+0x2c0>
9d005584:	00663004 	sllv	a2,a2,v1
9d005588:	01485021 	addu	t2,t2,t0
9d00558c:	0148282b 	sltu	a1,t2,t0
9d005590:	14a00006 	bnez	a1,9d0055ac <__udivdi3+0x2c0>
9d005594:	256bffff 	addiu	t3,t3,-1
9d005598:	014e282b 	sltu	a1,t2,t6
9d00559c:	50a00004 	beqzl	a1,9d0055b0 <__udivdi3+0x2c4>
9d0055a0:	014e5023 	subu	t2,t2,t6
9d0055a4:	256bffff 	addiu	t3,t3,-1
9d0055a8:	01485021 	addu	t2,t2,t0
9d0055ac:	014e5023 	subu	t2,t2,t6
9d0055b0:	0142001b 	divu	zero,t2,v0
9d0055b4:	004001f4 	teq	v0,zero,0x7
9d0055b8:	318cffff 	andi	t4,t4,0xffff
9d0055bc:	00002812 	mflo	a1
9d0055c0:	00007010 	mfhi	t6
9d0055c4:	70ad6802 	mul	t5,a1,t5
9d0055c8:	000e4c00 	sll	t1,t6,0x10
9d0055cc:	012c4825 	or	t1,t1,t4
9d0055d0:	012d382b 	sltu	a3,t1,t5
9d0055d4:	0142001b 	divu	zero,t2,v0
9d0055d8:	004001f4 	teq	v0,zero,0x7
9d0055dc:	50e0000b 	beqzl	a3,9d00560c <__udivdi3+0x320>
9d0055e0:	000b5c00 	sll	t3,t3,0x10
9d0055e4:	01284821 	addu	t1,t1,t0
9d0055e8:	0128102b 	sltu	v0,t1,t0
9d0055ec:	14400006 	bnez	v0,9d005608 <__udivdi3+0x31c>
9d0055f0:	24a5ffff 	addiu	a1,a1,-1
9d0055f4:	012d102b 	sltu	v0,t1,t5
9d0055f8:	50400004 	beqzl	v0,9d00560c <__udivdi3+0x320>
9d0055fc:	000b5c00 	sll	t3,t3,0x10
9d005600:	24a5ffff 	addiu	a1,a1,-1
9d005604:	01284821 	addu	t1,t1,t0
9d005608:	000b5c00 	sll	t3,t3,0x10
9d00560c:	00ab2825 	or	a1,a1,t3
9d005610:	00a60019 	multu	a1,a2
9d005614:	012d4823 	subu	t1,t1,t5
9d005618:	00003810 	mfhi	a3
9d00561c:	0127402b 	sltu	t0,t1,a3
9d005620:	15000044 	bnez	t0,9d005734 <__udivdi3+0x448>
9d005624:	00003012 	mflo	a2
9d005628:	1127003f 	beq	t1,a3,9d005728 <__udivdi3+0x43c>
9d00562c:	00642004 	sllv	a0,a0,v1
9d005630:	00002021 	move	a0,zero
9d005634:	00a01021 	move	v0,a1
9d005638:	03e00008 	jr	ra
9d00563c:	00801821 	move	v1,a0
9d005640:	00621004 	sllv	v0,v0,v1
9d005644:	01034023 	subu	t0,t0,v1
9d005648:	01053806 	srlv	a3,a1,t0
9d00564c:	00023402 	srl	a2,v0,0x10
9d005650:	00e6001b 	divu	zero,a3,a2
9d005654:	00c001f4 	teq	a2,zero,0x7
9d005658:	01044006 	srlv	t0,a0,t0
9d00565c:	00652804 	sllv	a1,a1,v1
9d005660:	3049ffff 	andi	t1,v0,0xffff
9d005664:	01052825 	or	a1,t0,a1
9d005668:	00644004 	sllv	t0,a0,v1
9d00566c:	00056402 	srl	t4,a1,0x10
9d005670:	00005012 	mflo	t2
9d005674:	00005810 	mfhi	t3
9d005678:	71492002 	mul	a0,t2,t1
9d00567c:	000b5c00 	sll	t3,t3,0x10
9d005680:	018b1825 	or	v1,t4,t3
9d005684:	0064582b 	sltu	t3,v1,a0
9d005688:	00e6001b 	divu	zero,a3,a2
9d00568c:	00c001f4 	teq	a2,zero,0x7
9d005690:	5160000b 	beqzl	t3,9d0056c0 <__udivdi3+0x3d4>
9d005694:	00641823 	subu	v1,v1,a0
9d005698:	00621821 	addu	v1,v1,v0
9d00569c:	0062382b 	sltu	a3,v1,v0
9d0056a0:	14e00006 	bnez	a3,9d0056bc <__udivdi3+0x3d0>
9d0056a4:	254affff 	addiu	t2,t2,-1
9d0056a8:	0064382b 	sltu	a3,v1,a0
9d0056ac:	50e00004 	beqzl	a3,9d0056c0 <__udivdi3+0x3d4>
9d0056b0:	00641823 	subu	v1,v1,a0
9d0056b4:	254affff 	addiu	t2,t2,-1
9d0056b8:	00621821 	addu	v1,v1,v0
9d0056bc:	00641823 	subu	v1,v1,a0
9d0056c0:	0066001b 	divu	zero,v1,a2
9d0056c4:	00c001f4 	teq	a2,zero,0x7
9d0056c8:	30a5ffff 	andi	a1,a1,0xffff
9d0056cc:	00002012 	mflo	a0
9d0056d0:	00005810 	mfhi	t3
9d0056d4:	70893802 	mul	a3,a0,t1
9d0056d8:	000b5c00 	sll	t3,t3,0x10
9d0056dc:	01652825 	or	a1,t3,a1
9d0056e0:	00a7582b 	sltu	t3,a1,a3
9d0056e4:	0066001b 	divu	zero,v1,a2
9d0056e8:	00c001f4 	teq	a2,zero,0x7
9d0056ec:	5160000b 	beqzl	t3,9d00571c <__udivdi3+0x430>
9d0056f0:	000a5400 	sll	t2,t2,0x10
9d0056f4:	00a22821 	addu	a1,a1,v0
9d0056f8:	00a2182b 	sltu	v1,a1,v0
9d0056fc:	14600006 	bnez	v1,9d005718 <__udivdi3+0x42c>
9d005700:	2484ffff 	addiu	a0,a0,-1
9d005704:	00a7182b 	sltu	v1,a1,a3
9d005708:	50600004 	beqzl	v1,9d00571c <__udivdi3+0x430>
9d00570c:	000a5400 	sll	t2,t2,0x10
9d005710:	2484ffff 	addiu	a0,a0,-1
9d005714:	00a22821 	addu	a1,a1,v0
9d005718:	000a5400 	sll	t2,t2,0x10
9d00571c:	00a72823 	subu	a1,a1,a3
9d005720:	0b40151a 	j	9d005468 <__udivdi3+0x17c>
9d005724:	008a2025 	or	a0,a0,t2
9d005728:	0086302b 	sltu	a2,a0,a2
9d00572c:	50c0ffc1 	beqzl	a2,9d005634 <__udivdi3+0x348>
9d005730:	00002021 	move	a0,zero
9d005734:	24a5ffff 	addiu	a1,a1,-1
9d005738:	0b40158d 	j	9d005634 <__udivdi3+0x348>
9d00573c:	00002021 	move	a0,zero
9d005740:	0b40152e 	j	9d0054b8 <__udivdi3+0x1cc>
9d005744:	00621821 	addu	v1,v1,v0

9d005748 <main>:
//Global varaibles
 volatile int DutyCycle=0; //DutyCycle set in PWM mode
int Samps; //number of  reference samps sent by MATLAB
 
int main() 
{
9d005748:	27bdfef8 	addiu	sp,sp,-264
9d00574c:	afbf0104 	sw	ra,260(sp)
9d005750:	afb40100 	sw	s4,256(sp)
9d005754:	afb300fc 	sw	s3,252(sp)
9d005758:	afb200f8 	sw	s2,248(sp)
9d00575c:	afb100f4 	sw	s1,244(sp)
  char buffer[BUF_SIZE];
  NU32_Startup(); 	// cache on, min flash wait, interrupts on, LED/button init, UART init
9d005760:	0f401b61 	jal	9d006d84 <NU32_Startup>
9d005764:	afb000f0 	sw	s0,240(sp)
  NU32_LED1 = 1;        // turn off the LEDs
9d005768:	3c02bf88 	lui	v0,0xbf88
9d00576c:	8c436020 	lw	v1,24608(v0)
9d005770:	24040001 	li	a0,1
9d005774:	7c832104 	ins	v1,a0,0x4,0x1
9d005778:	ac436020 	sw	v1,24608(v0)
  NU32_LED2 = 1;        
9d00577c:	8c436020 	lw	v1,24608(v0)
9d005780:	7c832944 	ins	v1,a0,0x5,0x1
9d005784:	ac436020 	sw	v1,24608(v0)
  __builtin_disable_interrupts(); //set up peripherals and ISR's
9d005788:	41626000 	di	v0
9d00578c:	000000c0 	ehb
      encoder_init();
9d005790:	0f4021b8 	jal	9d0086e0 <encoder_init>
9d005794:	00000000 	nop
      isense_init();
9d005798:	0f402243 	jal	9d00890c <.LFE0>
9d00579c:	00000000 	nop
      motor_init();
9d0057a0:	0f401126 	jal	9d004498 <motor_init>
9d0057a4:	00000000 	nop
      position_init();
9d0057a8:	0f401440 	jal	9d005100 <position_init>
9d0057ac:	00000000 	nop
  __builtin_enable_interrupts();
9d0057b0:	41626020 	ei	v0

  while(1)
  {
    NU32_ReadUART1(buffer,BUF_SIZE);	  // we expect the next character to be a menu command
    NU32_LED2 = 1;                        // clear the error led
9d0057b4:	3c10bf88 	lui	s0,0xbf88
    switch (buffer[0]) {
9d0057b8:	3c119d00 	lui	s1,0x9d00
9d0057bc:	2631581c 	addiu	s1,s1,22556
        util_state_set(local_state);// handle q for quit and return to idle state here 
        break;
      }
      case 'r':
      { 
        sprintf(buffer,"%d\r\n", util_state_get());
9d0057c0:	3c129d01 	lui	s2,0x9d01
9d0057c4:	26529d0c 	addiu	s2,s2,-25332
        break;
        }
        case 'l':                           // Set recording samples
        { int addsamps;          
          NU32_ReadUART1(buffer,BUF_SIZE);
          sscanf(buffer, "%d", &addsamps);
9d0057c8:	3c139d01 	lui	s3,0x9d01
9d0057cc:	26739d14 	addiu	s3,s3,-25324
        break;
        }
        case 'j':                           // Get position gains
        { PID_gains position;
         position=position_gains_read();
         sprintf(buffer,"%f %f %f\r\n", position.Kp, position.Ki, position.Kd);
9d0057d0:	3c149d01 	lui	s4,0x9d01
      position_init();
  __builtin_enable_interrupts();

  while(1)
  {
    NU32_ReadUART1(buffer,BUF_SIZE);	  // we expect the next character to be a menu command
9d0057d4:	27a40018 	addiu	a0,sp,24
9d0057d8:	0f401ae0 	jal	9d006b80 <.LFE23>
9d0057dc:	240500c8 	li	a1,200
    NU32_LED2 = 1;                        // clear the error led
9d0057e0:	8e026020 	lw	v0,24608(s0)
9d0057e4:	24030001 	li	v1,1
9d0057e8:	7c622944 	ins	v0,v1,0x5,0x1
9d0057ec:	ae026020 	sw	v0,24608(s0)
    switch (buffer[0]) {
9d0057f0:	93a20018 	lbu	v0,24(sp)
9d0057f4:	2442ff9f 	addiu	v0,v0,-97
9d0057f8:	304300ff 	andi	v1,v0,0xff
9d0057fc:	2c630012 	sltiu	v1,v1,18
9d005800:	106000e2 	beqz	v1,9d005b8c <main+0x444>
9d005804:	304200ff 	andi	v0,v0,0xff
9d005808:	00021080 	sll	v0,v0,0x2
9d00580c:	02221021 	addu	v0,s1,v0
9d005810:	8c420000 	lw	v0,0(v0)
9d005814:	00400008 	jr	v0
9d005818:	00000000 	nop
9d00581c:	9d005864 	0x9d005864
9d005820:	9d00588c 	0x9d00588c
9d005824:	9d0058b4 	0x9d0058b4
9d005828:	9d0058dc 	0x9d0058dc
9d00582c:	9d005904 	0x9d005904
9d005830:	9d005914 	0x9d005914
9d005834:	9d005940 	0x9d005940
9d005838:	9d00598c 	0x9d00598c
9d00583c:	9d0059bc 	0x9d0059bc
9d005840:	9d005a10 	0x9d005a10
9d005844:	9d005a44 	0x9d005a44
9d005848:	9d005a74 	0x9d005a74
9d00584c:	9d005aa0 	0x9d005aa0
9d005850:	9d005adc 	0x9d005adc
9d005854:	9d005b04 	0x9d005b04
9d005858:	9d005b2c 	0x9d005b2c
9d00585c:	9d005b54 	0x9d005b54
9d005860:	9d005b64 	0x9d005b64
     case 'a':                           // read current sensor ticks
      {
	sprintf(buffer,"%d\r\n", isense_ticks());
9d005864:	0f402251 	jal	9d008944 <isense_ticks>
9d005868:	00000000 	nop
9d00586c:	27a40018 	addiu	a0,sp,24
9d005870:	02402821 	move	a1,s2
9d005874:	0f402615 	jal	9d009854 <_sprintf_cdfFnopuxX>
9d005878:	00403021 	move	a2,v0
        NU32_WriteUART1(buffer);
9d00587c:	0f401afe 	jal	9d006bf8 <NU32_WriteUART1>
9d005880:	27a40018 	addiu	a0,sp,24
        break;
9d005884:	0b4015f6 	j	9d0057d8 <main+0x90>
9d005888:	27a40018 	addiu	a0,sp,24
      }
      case 'b':                           // read current sensor in mA
      {       
	sprintf(buffer,"%d\r\n", isense_amps());
9d00588c:	0f402275 	jal	9d0089d4 <isense_amps>
9d005890:	00000000 	nop
9d005894:	27a40018 	addiu	a0,sp,24
9d005898:	02402821 	move	a1,s2
9d00589c:	0f402615 	jal	9d009854 <_sprintf_cdfFnopuxX>
9d0058a0:	00403021 	move	a2,v0
        NU32_WriteUART1(buffer);
9d0058a4:	0f401afe 	jal	9d006bf8 <NU32_WriteUART1>
9d0058a8:	27a40018 	addiu	a0,sp,24
        break;
9d0058ac:	0b4015f6 	j	9d0057d8 <main+0x90>
9d0058b0:	27a40018 	addiu	a0,sp,24
      }
      
      case 'c':                           // encoder ticks
      {
        sprintf(buffer,"%d\r\n", encoder_ticks());
9d0058b4:	0f4021d9 	jal	9d008764 <encoder_ticks>
9d0058b8:	00000000 	nop
9d0058bc:	27a40018 	addiu	a0,sp,24
9d0058c0:	02402821 	move	a1,s2
9d0058c4:	0f402615 	jal	9d009854 <_sprintf_cdfFnopuxX>
9d0058c8:	00403021 	move	a2,v0
        NU32_WriteUART1(buffer);
9d0058cc:	0f401afe 	jal	9d006bf8 <NU32_WriteUART1>
9d0058d0:	27a40018 	addiu	a0,sp,24
        break;
9d0058d4:	0b4015f6 	j	9d0057d8 <main+0x90>
9d0058d8:	27a40018 	addiu	a0,sp,24
      }
      case 'd':                           // encoder angle
      {
        sprintf(buffer,"%d\r\n", encoder_angle());
9d0058dc:	0f4021e9 	jal	9d0087a4 <encoder_angle>
9d0058e0:	00000000 	nop
9d0058e4:	27a40018 	addiu	a0,sp,24
9d0058e8:	02402821 	move	a1,s2
9d0058ec:	0f402615 	jal	9d009854 <_sprintf_cdfFnopuxX>
9d0058f0:	00403021 	move	a2,v0
        NU32_WriteUART1(buffer);
9d0058f4:	0f401afe 	jal	9d006bf8 <NU32_WriteUART1>
9d0058f8:	27a40018 	addiu	a0,sp,24
        break;
9d0058fc:	0b4015f6 	j	9d0057d8 <main+0x90>
9d005900:	27a40018 	addiu	a0,sp,24
      }
      case 'e':                           // encoder reset
      {
        encoder_reset();
9d005904:	0f4021e2 	jal	9d008788 <encoder_reset>
9d005908:	00000000 	nop
        break;
9d00590c:	0b4015f6 	j	9d0057d8 <main+0x90>
9d005910:	27a40018 	addiu	a0,sp,24
      }
      case 'f':                           // Set PWM mode
      { 
        util_state_set(PWM);     //set state variable to PWM mode
9d005914:	0f402028 	jal	9d0080a0 <util_state_set>
9d005918:	24040001 	li	a0,1
        NU32_ReadUART1(buffer,BUF_SIZE);
9d00591c:	27a40018 	addiu	a0,sp,24
9d005920:	0f401ae0 	jal	9d006b80 <.LFE23>
9d005924:	240500c8 	li	a1,200
        sscanf(buffer, "%d", &DutyCycle); //update DutyCycle for interrupt to use
9d005928:	27a40018 	addiu	a0,sp,24
9d00592c:	02602821 	move	a1,s3
9d005930:	0f402691 	jal	9d009a44 <_sscanf_cdfFnopuxX>
9d005934:	27868020 	addiu	a2,gp,-32736
        break;
9d005938:	0b4015f6 	j	9d0057d8 <main+0x90>
9d00593c:	27a40018 	addiu	a0,sp,24
       }
       case 'g':                           // Set current gains
       { PID_gains motor;                     //local variable of type PID_gains
         motor.Kp=0; motor.Ki=0; motor.Kd=0;  //set default value of gains
9d005940:	00001021 	move	v0,zero
9d005944:	afa200e4 	sw	v0,228(sp)
9d005948:	afa200e8 	sw	v0,232(sp)
9d00594c:	afa200ec 	sw	v0,236(sp)
        NU32_ReadUART1(buffer,BUF_SIZE);
9d005950:	27a40018 	addiu	a0,sp,24
9d005954:	0f401ae0 	jal	9d006b80 <.LFE23>
9d005958:	240500c8 	li	a1,200
        sscanf(buffer, "%f %f", &motor.Kp, &motor.Ki); //Read Kp and Ki
9d00595c:	27a40018 	addiu	a0,sp,24
9d005960:	3c059d01 	lui	a1,0x9d01
9d005964:	24a59d18 	addiu	a1,a1,-25320
9d005968:	27a600e4 	addiu	a2,sp,228
9d00596c:	0f402691 	jal	9d009a44 <_sscanf_cdfFnopuxX>
9d005970:	27a700e8 	addiu	a3,sp,232
        motor_gains_write(motor);   //pass PID_gains structure to gain write function
9d005974:	8fa400e4 	lw	a0,228(sp)
9d005978:	8fa500e8 	lw	a1,232(sp)
9d00597c:	0f40125b 	jal	9d00496c <motor_gains_write>
9d005980:	8fa600ec 	lw	a2,236(sp)
        break;
9d005984:	0b4015f6 	j	9d0057d8 <main+0x90>
9d005988:	27a40018 	addiu	a0,sp,24
       }
       case 'h':                           // Get current gains
       { PID_gains motor;
         motor=motor_gains_read();       
9d00598c:	0f40124d 	jal	9d004934 <motor_gains_read>
9d005990:	27a400e4 	addiu	a0,sp,228
         sprintf(buffer,"%f %f\r\n", motor.Kp, motor.Ki);
9d005994:	27a40018 	addiu	a0,sp,24
9d005998:	3c059d01 	lui	a1,0x9d01
9d00599c:	24a59d20 	addiu	a1,a1,-25312
9d0059a0:	8fa600e4 	lw	a2,228(sp)
9d0059a4:	0f402615 	jal	9d009854 <_sprintf_cdfFnopuxX>
9d0059a8:	8fa700e8 	lw	a3,232(sp)
          NU32_WriteUART1(buffer);
9d0059ac:	0f401afe 	jal	9d006bf8 <NU32_WriteUART1>
9d0059b0:	27a40018 	addiu	a0,sp,24
        
        break;
9d0059b4:	0b4015f6 	j	9d0057d8 <main+0x90>
9d0059b8:	27a40018 	addiu	a0,sp,24
        }
        case 'i':                           // Set position gains
        { PID_gains position;               //use same PID_gains stucture as current gains
         position.Kp=0; position.Ki=0; position.Kd=0;
9d0059bc:	00001021 	move	v0,zero
9d0059c0:	afa200e4 	sw	v0,228(sp)
9d0059c4:	afa200e8 	sw	v0,232(sp)
9d0059c8:	afa200ec 	sw	v0,236(sp)
        NU32_ReadUART1(buffer,BUF_SIZE);
9d0059cc:	27a40018 	addiu	a0,sp,24
9d0059d0:	0f401ae0 	jal	9d006b80 <.LFE23>
9d0059d4:	240500c8 	li	a1,200
        sscanf(buffer, "%f %f %f", &position.Kp, &position.Ki, &position.Kd);
9d0059d8:	27a200ec 	addiu	v0,sp,236
9d0059dc:	afa20010 	sw	v0,16(sp)
9d0059e0:	27a40018 	addiu	a0,sp,24
9d0059e4:	3c059d01 	lui	a1,0x9d01
9d0059e8:	24a59d28 	addiu	a1,a1,-25304
9d0059ec:	27a600e4 	addiu	a2,sp,228
9d0059f0:	0f402691 	jal	9d009a44 <_sscanf_cdfFnopuxX>
9d0059f4:	27a700e8 	addiu	a3,sp,232
        position_gains_send(position);
9d0059f8:	8fa400e4 	lw	a0,228(sp)
9d0059fc:	8fa500e8 	lw	a1,232(sp)
9d005a00:	0f4014a9 	jal	9d0052a4 <position_gains_send>
9d005a04:	8fa600ec 	lw	a2,236(sp)
        
        break;
9d005a08:	0b4015f6 	j	9d0057d8 <main+0x90>
9d005a0c:	27a40018 	addiu	a0,sp,24
        }
        case 'j':                           // Get position gains
        { PID_gains position;
         position=position_gains_read();
9d005a10:	0f40149b 	jal	9d00526c <position_gains_read>
9d005a14:	27a400e4 	addiu	a0,sp,228
         sprintf(buffer,"%f %f %f\r\n", position.Kp, position.Ki, position.Kd);
9d005a18:	8fa200ec 	lw	v0,236(sp)
9d005a1c:	afa20010 	sw	v0,16(sp)
9d005a20:	27a40018 	addiu	a0,sp,24
9d005a24:	26859d34 	addiu	a1,s4,-25292
9d005a28:	8fa600e4 	lw	a2,228(sp)
9d005a2c:	0f402615 	jal	9d009854 <_sprintf_cdfFnopuxX>
9d005a30:	8fa700e8 	lw	a3,232(sp)
          NU32_WriteUART1(buffer);
9d005a34:	0f401afe 	jal	9d006bf8 <NU32_WriteUART1>
9d005a38:	27a40018 	addiu	a0,sp,24
        
         break;
9d005a3c:	0b4015f6 	j	9d0057d8 <main+0x90>
9d005a40:	27a40018 	addiu	a0,sp,24
        }
        case 'k':                           // Tune current loop
         util_buffer_init(50);
9d005a44:	0f40202b 	jal	9d0080ac <util_buffer_init>
9d005a48:	24040032 	li	a0,50
         motor_control_reset();      //reset Eint
9d005a4c:	0f401255 	jal	9d004954 <motor_control_reset>
9d005a50:	00000000 	nop
         util_state_set(TUNE);       //set state to TUNE for ISR
9d005a54:	0f402028 	jal	9d0080a0 <util_state_set>
9d005a58:	24040002 	li	a0,2
         util_buffer_output();       //send buffer to MATLAB
9d005a5c:	0f402059 	jal	9d008164 <util_buffer_output>
9d005a60:	00000000 	nop
         util_state_set(IDLE);       //set state back to IDLE
9d005a64:	0f402028 	jal	9d0080a0 <util_state_set>
9d005a68:	00002021 	move	a0,zero
        { 
        
        break;
9d005a6c:	0b4015f6 	j	9d0057d8 <main+0x90>
9d005a70:	27a40018 	addiu	a0,sp,24
        }
        case 'l':                           // Set recording samples
        { int addsamps;          
          NU32_ReadUART1(buffer,BUF_SIZE);
9d005a74:	27a40018 	addiu	a0,sp,24
9d005a78:	0f401ae0 	jal	9d006b80 <.LFE23>
9d005a7c:	240500c8 	li	a1,200
          sscanf(buffer, "%d", &addsamps);
9d005a80:	27a40018 	addiu	a0,sp,24
9d005a84:	02602821 	move	a1,s3
9d005a88:	0f402691 	jal	9d009a44 <_sscanf_cdfFnopuxX>
9d005a8c:	27a600e0 	addiu	a2,sp,224
          util_samples_set(addsamps);       //set additional sample for the buffer
9d005a90:	0f402032 	jal	9d0080c8 <util_samples_set>
9d005a94:	8fa400e0 	lw	a0,224(sp)
        break;
9d005a98:	0b4015f6 	j	9d0057d8 <main+0x90>
9d005a9c:	27a40018 	addiu	a0,sp,24
        }
        case 'm':                           // Go to angle
        { Samps = position_load();        //read the values from Matlab
9d005aa0:	0f401471 	jal	9d0051c4 <position_load>
9d005aa4:	00000000 	nop
9d005aa8:	af82806c 	sw	v0,-32660(gp)
          util_buffer_init(Samps);        //set buffer to take samples=reference samples+additional samples
9d005aac:	0f40202b 	jal	9d0080ac <util_buffer_init>
9d005ab0:	00402021 	move	a0,v0
          position_control_reset();       //clear position integral error
9d005ab4:	0f4014a3 	jal	9d00528c <position_control_reset>
9d005ab8:	00000000 	nop
          position_reset();               //set trajectory index to beginning
9d005abc:	0f401499 	jal	9d005264 <position_reset>
9d005ac0:	00000000 	nop
          util_state_set(TRACK);          //set state to TRACK
9d005ac4:	0f402028 	jal	9d0080a0 <util_state_set>
9d005ac8:	24040003 	li	a0,3
          util_buffer_output();           //send position control data to matlab
9d005acc:	0f402059 	jal	9d008164 <util_buffer_output>
9d005ad0:	00000000 	nop
        break;
9d005ad4:	0b4015f6 	j	9d0057d8 <main+0x90>
9d005ad8:	27a40018 	addiu	a0,sp,24
        }
        case 'n':                           // Load step trajectory
        { util_state_set(IDLE);       //set state back to IDLE
9d005adc:	0f402028 	jal	9d0080a0 <util_state_set>
9d005ae0:	00002021 	move	a0,zero
          Samps = position_load();         //read values from Matlab and store number of reference samples
9d005ae4:	0f401471 	jal	9d0051c4 <position_load>
9d005ae8:	00000000 	nop
          position_control_reset();        //clear Eint
9d005aec:	0f4014a3 	jal	9d00528c <position_control_reset>
9d005af0:	af82806c 	sw	v0,-32660(gp)
          position_reset();                //set trajectory index to beginning
9d005af4:	0f401499 	jal	9d005264 <position_reset>
9d005af8:	00000000 	nop
        
        break;
9d005afc:	0b4015f6 	j	9d0057d8 <main+0x90>
9d005b00:	27a40018 	addiu	a0,sp,24
        }
        case 'o':                           // Load cubic trajectory
        { util_state_set(IDLE);       //set state back to IDLE
9d005b04:	0f402028 	jal	9d0080a0 <util_state_set>
9d005b08:	00002021 	move	a0,zero
          Samps = position_load(); 
9d005b0c:	0f401471 	jal	9d0051c4 <position_load>
9d005b10:	00000000 	nop
          position_control_reset();
9d005b14:	0f4014a3 	jal	9d00528c <position_control_reset>
9d005b18:	af82806c 	sw	v0,-32660(gp)
          position_reset();
9d005b1c:	0f401499 	jal	9d005264 <position_reset>
9d005b20:	00000000 	nop
        
        break;
9d005b24:	0b4015f6 	j	9d0057d8 <main+0x90>
9d005b28:	27a40018 	addiu	a0,sp,24
        }
        case 'p':                           // Execute trajectory
        { util_buffer_init(Samps);        //set buffer to take samples=reference samples+additional samples
9d005b2c:	0f40202b 	jal	9d0080ac <util_buffer_init>
9d005b30:	8f84806c 	lw	a0,-32660(gp)
         position_reset();                //set trajectory index to beginning
9d005b34:	0f401499 	jal	9d005264 <position_reset>
9d005b38:	00000000 	nop
         util_state_set(TRACK);           //set state to TRACK
9d005b3c:	0f402028 	jal	9d0080a0 <util_state_set>
9d005b40:	24040003 	li	a0,3
         util_buffer_output();            //send position control data to matlab
9d005b44:	0f402059 	jal	9d008164 <util_buffer_output>
9d005b48:	00000000 	nop
        break;
9d005b4c:	0b4015f6 	j	9d0057d8 <main+0x90>
9d005b50:	27a40018 	addiu	a0,sp,24
        }
      case 'q':
      {
        state_t local_state;
	local_state=IDLE;
        util_state_set(local_state);// handle q for quit and return to idle state here 
9d005b54:	0f402028 	jal	9d0080a0 <util_state_set>
9d005b58:	00002021 	move	a0,zero
        break;
9d005b5c:	0b4015f6 	j	9d0057d8 <main+0x90>
9d005b60:	27a40018 	addiu	a0,sp,24
      }
      case 'r':
      { 
        sprintf(buffer,"%d\r\n", util_state_get());
9d005b64:	0f402025 	jal	9d008094 <util_state_get>
9d005b68:	00000000 	nop
9d005b6c:	27a40018 	addiu	a0,sp,24
9d005b70:	02402821 	move	a1,s2
9d005b74:	0f402615 	jal	9d009854 <_sprintf_cdfFnopuxX>
9d005b78:	00403021 	move	a2,v0
        NU32_WriteUART1(buffer);    // query the state 
9d005b7c:	0f401afe 	jal	9d006bf8 <NU32_WriteUART1>
9d005b80:	27a40018 	addiu	a0,sp,24
        break;
9d005b84:	0b4015f6 	j	9d0057d8 <main+0x90>
9d005b88:	27a40018 	addiu	a0,sp,24
      }
      default:
      {
        NU32_LED2 = 0;    // turn on LED2 to indicate an error
9d005b8c:	8e026020 	lw	v0,24608(s0)
9d005b90:	7c022944 	ins	v0,zero,0x5,0x1
9d005b94:	ae026020 	sw	v0,24608(s0)
      position_init();
  __builtin_enable_interrupts();

  while(1)
  {
    NU32_ReadUART1(buffer,BUF_SIZE);	  // we expect the next character to be a menu command
9d005b98:	0b4015f6 	j	9d0057d8 <main+0x90>
9d005b9c:	27a40018 	addiu	a0,sp,24

9d005ba0 <__umoddi3>:
9d005ba0:	00c04821 	move	t1,a2
9d005ba4:	00804021 	move	t0,a0
9d005ba8:	14e0003b 	bnez	a3,9d005c98 <__umoddi3+0xf8>
9d005bac:	00a01821 	move	v1,a1
9d005bb0:	00a6102b 	sltu	v0,a1,a2
9d005bb4:	10400048 	beqz	v0,9d005cd8 <__umoddi3+0x138>
9d005bb8:	70c21020 	clz	v0,a2
9d005bbc:	10400008 	beqz	v0,9d005be0 <__umoddi3+0x40>
9d005bc0:	00093c02 	srl	a3,t1,0x10
9d005bc4:	00022023 	negu	a0,v0
9d005bc8:	00882006 	srlv	a0,t0,a0
9d005bcc:	00451804 	sllv	v1,a1,v0
9d005bd0:	00464804 	sllv	t1,a2,v0
9d005bd4:	00831825 	or	v1,a0,v1
9d005bd8:	00484004 	sllv	t0,t0,v0
9d005bdc:	00093c02 	srl	a3,t1,0x10
9d005be0:	0067001b 	divu	zero,v1,a3
9d005be4:	00e001f4 	teq	a3,zero,0x7
9d005be8:	312affff 	andi	t2,t1,0xffff
9d005bec:	00082c02 	srl	a1,t0,0x10
9d005bf0:	00005812 	mflo	t3
9d005bf4:	00002010 	mfhi	a0
9d005bf8:	716a5802 	mul	t3,t3,t2
9d005bfc:	00043400 	sll	a2,a0,0x10
9d005c00:	00c53025 	or	a2,a2,a1
9d005c04:	00cb602b 	sltu	t4,a2,t3
9d005c08:	0067001b 	divu	zero,v1,a3
9d005c0c:	00e001f4 	teq	a3,zero,0x7
9d005c10:	11800009 	beqz	t4,9d005c38 <__umoddi3+0x98>
9d005c14:	00cb1823 	subu	v1,a2,t3
9d005c18:	00c93021 	addu	a2,a2,t1
9d005c1c:	00c9182b 	sltu	v1,a2,t1
9d005c20:	14600005 	bnez	v1,9d005c38 <__umoddi3+0x98>
9d005c24:	00cb1823 	subu	v1,a2,t3
9d005c28:	00cb182b 	sltu	v1,a2,t3
9d005c2c:	54600001 	bnezl	v1,9d005c34 <__umoddi3+0x94>
9d005c30:	00c93021 	addu	a2,a2,t1
9d005c34:	00cb1823 	subu	v1,a2,t3
9d005c38:	0067001b 	divu	zero,v1,a3
9d005c3c:	00e001f4 	teq	a3,zero,0x7
9d005c40:	3108ffff 	andi	t0,t0,0xffff
9d005c44:	00002012 	mflo	a0
9d005c48:	00002810 	mfhi	a1
9d005c4c:	708a5002 	mul	t2,a0,t2
9d005c50:	00052c00 	sll	a1,a1,0x10
9d005c54:	00a84025 	or	t0,a1,t0
9d005c58:	010a202b 	sltu	a0,t0,t2
9d005c5c:	0067001b 	divu	zero,v1,a3
9d005c60:	00e001f4 	teq	a3,zero,0x7
9d005c64:	50800009 	beqzl	a0,9d005c8c <__umoddi3+0xec>
9d005c68:	010a4023 	subu	t0,t0,t2
9d005c6c:	01094021 	addu	t0,t0,t1
9d005c70:	0109182b 	sltu	v1,t0,t1
9d005c74:	54600005 	bnezl	v1,9d005c8c <__umoddi3+0xec>
9d005c78:	010a4023 	subu	t0,t0,t2
9d005c7c:	010a182b 	sltu	v1,t0,t2
9d005c80:	54600001 	bnezl	v1,9d005c88 <__umoddi3+0xe8>
9d005c84:	01094021 	addu	t0,t0,t1
9d005c88:	010a4023 	subu	t0,t0,t2
9d005c8c:	00481006 	srlv	v0,t0,v0
9d005c90:	03e00008 	jr	ra
9d005c94:	00001821 	move	v1,zero
9d005c98:	00a7102b 	sltu	v0,a1,a3
9d005c9c:	14400042 	bnez	v0,9d005da8 <__umoddi3+0x208>
9d005ca0:	70ea5020 	clz	t2,a3
9d005ca4:	15400043 	bnez	t2,9d005db4 <__umoddi3+0x214>
9d005ca8:	240c0020 	li	t4,32
9d005cac:	00e5102b 	sltu	v0,a3,a1
9d005cb0:	14400005 	bnez	v0,9d005cc8 <__umoddi3+0x128>
9d005cb4:	00861023 	subu	v0,a0,a2
9d005cb8:	0086102b 	sltu	v0,a0,a2
9d005cbc:	544000c8 	bnezl	v0,9d005fe0 <__umoddi3+0x440>
9d005cc0:	00801021 	move	v0,a0
9d005cc4:	00861023 	subu	v0,a0,a2
9d005cc8:	00a72823 	subu	a1,a1,a3
9d005ccc:	0082202b 	sltu	a0,a0,v0
9d005cd0:	03e00008 	jr	ra
9d005cd4:	00a41823 	subu	v1,a1,a0
9d005cd8:	14c00006 	bnez	a2,9d005cf4 <__umoddi3+0x154>
9d005cdc:	71221020 	clz	v0,t1
9d005ce0:	24020001 	li	v0,1
9d005ce4:	0046001b 	divu	zero,v0,a2
9d005ce8:	00c001f4 	teq	a2,zero,0x7
9d005cec:	00004812 	mflo	t1
9d005cf0:	71221020 	clz	v0,t1
9d005cf4:	5440007d 	bnezl	v0,9d005eec <__umoddi3+0x34c>
9d005cf8:	24080020 	li	t0,32
9d005cfc:	00a93023 	subu	a2,a1,t1
9d005d00:	00091c02 	srl	v1,t1,0x10
9d005d04:	312affff 	andi	t2,t1,0xffff
9d005d08:	00c3001b 	divu	zero,a2,v1
9d005d0c:	006001f4 	teq	v1,zero,0x7
9d005d10:	00086402 	srl	t4,t0,0x10
9d005d14:	00002012 	mflo	a0
9d005d18:	00005810 	mfhi	t3
9d005d1c:	708a2002 	mul	a0,a0,t2
9d005d20:	000b3c00 	sll	a3,t3,0x10
9d005d24:	00ec3825 	or	a3,a3,t4
9d005d28:	00e4582b 	sltu	t3,a3,a0
9d005d2c:	00c3001b 	divu	zero,a2,v1
9d005d30:	006001f4 	teq	v1,zero,0x7
9d005d34:	11600009 	beqz	t3,9d005d5c <__umoddi3+0x1bc>
9d005d38:	00e42823 	subu	a1,a3,a0
9d005d3c:	00e93821 	addu	a3,a3,t1
9d005d40:	00e9282b 	sltu	a1,a3,t1
9d005d44:	14a00005 	bnez	a1,9d005d5c <__umoddi3+0x1bc>
9d005d48:	00e42823 	subu	a1,a3,a0
9d005d4c:	00e4282b 	sltu	a1,a3,a0
9d005d50:	54a00001 	bnezl	a1,9d005d58 <__umoddi3+0x1b8>
9d005d54:	00e93821 	addu	a3,a3,t1
9d005d58:	00e42823 	subu	a1,a3,a0
9d005d5c:	00a3001b 	divu	zero,a1,v1
9d005d60:	006001f4 	teq	v1,zero,0x7
9d005d64:	3108ffff 	andi	t0,t0,0xffff
9d005d68:	00002012 	mflo	a0
9d005d6c:	00003010 	mfhi	a2
9d005d70:	708a5002 	mul	t2,a0,t2
9d005d74:	00063400 	sll	a2,a2,0x10
9d005d78:	00c84025 	or	t0,a2,t0
9d005d7c:	010a202b 	sltu	a0,t0,t2
9d005d80:	00a3001b 	divu	zero,a1,v1
9d005d84:	006001f4 	teq	v1,zero,0x7
9d005d88:	5080ffc0 	beqzl	a0,9d005c8c <__umoddi3+0xec>
9d005d8c:	010a4023 	subu	t0,t0,t2
9d005d90:	01094021 	addu	t0,t0,t1
9d005d94:	0109182b 	sltu	v1,t0,t1
9d005d98:	5460ffbc 	bnezl	v1,9d005c8c <__umoddi3+0xec>
9d005d9c:	010a4023 	subu	t0,t0,t2
9d005da0:	0b401720 	j	9d005c80 <__umoddi3+0xe0>
9d005da4:	010a182b 	sltu	v1,t0,t2
9d005da8:	00801021 	move	v0,a0
9d005dac:	03e00008 	jr	ra
9d005db0:	00a01821 	move	v1,a1
9d005db4:	018a6023 	subu	t4,t4,t2
9d005db8:	01473804 	sllv	a3,a3,t2
9d005dbc:	01865806 	srlv	t3,a2,t4
9d005dc0:	01675825 	or	t3,t3,a3
9d005dc4:	01856806 	srlv	t5,a1,t4
9d005dc8:	000b3c02 	srl	a3,t3,0x10
9d005dcc:	01a7001b 	divu	zero,t5,a3
9d005dd0:	00e001f4 	teq	a3,zero,0x7
9d005dd4:	316fffff 	andi	t7,t3,0xffff
9d005dd8:	01841006 	srlv	v0,a0,t4
9d005ddc:	01452804 	sllv	a1,a1,t2
9d005de0:	00452825 	or	a1,v0,a1
9d005de4:	00051402 	srl	v0,a1,0x10
9d005de8:	01463004 	sllv	a2,a2,t2
9d005dec:	00007012 	mflo	t6
9d005df0:	00001810 	mfhi	v1
9d005df4:	71cfc002 	mul	t8,t6,t7
9d005df8:	00034c00 	sll	t1,v1,0x10
9d005dfc:	01224825 	or	t1,t1,v0
9d005e00:	0138102b 	sltu	v0,t1,t8
9d005e04:	01a7001b 	divu	zero,t5,a3
9d005e08:	00e001f4 	teq	a3,zero,0x7
9d005e0c:	1040000a 	beqz	v0,9d005e38 <__umoddi3+0x298>
9d005e10:	01442004 	sllv	a0,a0,t2
9d005e14:	012b4821 	addu	t1,t1,t3
9d005e18:	012b102b 	sltu	v0,t1,t3
9d005e1c:	14400006 	bnez	v0,9d005e38 <__umoddi3+0x298>
9d005e20:	25ceffff 	addiu	t6,t6,-1
9d005e24:	0138102b 	sltu	v0,t1,t8
9d005e28:	50400004 	beqzl	v0,9d005e3c <__umoddi3+0x29c>
9d005e2c:	01384823 	subu	t1,t1,t8
9d005e30:	25ceffff 	addiu	t6,t6,-1
9d005e34:	012b4821 	addu	t1,t1,t3
9d005e38:	01384823 	subu	t1,t1,t8
9d005e3c:	0127001b 	divu	zero,t1,a3
9d005e40:	00e001f4 	teq	a3,zero,0x7
9d005e44:	30a5ffff 	andi	a1,a1,0xffff
9d005e48:	00006812 	mflo	t5
9d005e4c:	00001810 	mfhi	v1
9d005e50:	71af7802 	mul	t7,t5,t7
9d005e54:	00031400 	sll	v0,v1,0x10
9d005e58:	00451025 	or	v0,v0,a1
9d005e5c:	004f182b 	sltu	v1,v0,t7
9d005e60:	0127001b 	divu	zero,t1,a3
9d005e64:	00e001f4 	teq	a3,zero,0x7
9d005e68:	1060000b 	beqz	v1,9d005e98 <__umoddi3+0x2f8>
9d005e6c:	000e4400 	sll	t0,t6,0x10
9d005e70:	004b1021 	addu	v0,v0,t3
9d005e74:	004b182b 	sltu	v1,v0,t3
9d005e78:	14600007 	bnez	v1,9d005e98 <__umoddi3+0x2f8>
9d005e7c:	25adffff 	addiu	t5,t5,-1
9d005e80:	004f182b 	sltu	v1,v0,t7
9d005e84:	10600005 	beqz	v1,9d005e9c <__umoddi3+0x2fc>
9d005e88:	01a84025 	or	t0,t5,t0
9d005e8c:	25adffff 	addiu	t5,t5,-1
9d005e90:	004b1021 	addu	v0,v0,t3
9d005e94:	000e4400 	sll	t0,t6,0x10
9d005e98:	01a84025 	or	t0,t5,t0
9d005e9c:	01060019 	multu	t0,a2
9d005ea0:	004f7823 	subu	t7,v0,t7
9d005ea4:	00004810 	mfhi	t1
9d005ea8:	00004012 	mflo	t0
9d005eac:	01e9282b 	sltu	a1,t7,t1
9d005eb0:	01201821 	move	v1,t1
9d005eb4:	01203821 	move	a3,t1
9d005eb8:	14a00040 	bnez	a1,9d005fbc <__umoddi3+0x41c>
9d005ebc:	00001012 	mflo	v0
9d005ec0:	51e90043 	beql	t7,t1,9d005fd0 <__umoddi3+0x430>
9d005ec4:	0082182b 	sltu	v1,a0,v0
9d005ec8:	01e31823 	subu	v1,t7,v1
9d005ecc:	00883023 	subu	a2,a0,t0
9d005ed0:	0086202b 	sltu	a0,a0,a2
9d005ed4:	00641823 	subu	v1,v1,a0
9d005ed8:	01836004 	sllv	t4,v1,t4
9d005edc:	01461006 	srlv	v0,a2,t2
9d005ee0:	004c1025 	or	v0,v0,t4
9d005ee4:	03e00008 	jr	ra
9d005ee8:	01431806 	srlv	v1,v1,t2
9d005eec:	01024023 	subu	t0,t0,v0
9d005ef0:	00494804 	sllv	t1,t1,v0
9d005ef4:	01053806 	srlv	a3,a1,t0
9d005ef8:	00091c02 	srl	v1,t1,0x10
9d005efc:	00e3001b 	divu	zero,a3,v1
9d005f00:	006001f4 	teq	v1,zero,0x7
9d005f04:	312affff 	andi	t2,t1,0xffff
9d005f08:	01046006 	srlv	t4,a0,t0
9d005f0c:	00452804 	sllv	a1,a1,v0
9d005f10:	01856025 	or	t4,t4,a1
9d005f14:	000c2c02 	srl	a1,t4,0x10
9d005f18:	00444004 	sllv	t0,a0,v0
9d005f1c:	00005812 	mflo	t3
9d005f20:	00006810 	mfhi	t5
9d005f24:	716a5802 	mul	t3,t3,t2
9d005f28:	000d6c00 	sll	t5,t5,0x10
9d005f2c:	00ad2025 	or	a0,a1,t5
9d005f30:	008b282b 	sltu	a1,a0,t3
9d005f34:	00e3001b 	divu	zero,a3,v1
9d005f38:	006001f4 	teq	v1,zero,0x7
9d005f3c:	50a00009 	beqzl	a1,9d005f64 <__umoddi3+0x3c4>
9d005f40:	008b2023 	subu	a0,a0,t3
9d005f44:	00892021 	addu	a0,a0,t1
9d005f48:	0089282b 	sltu	a1,a0,t1
9d005f4c:	54a00005 	bnezl	a1,9d005f64 <__umoddi3+0x3c4>
9d005f50:	008b2023 	subu	a0,a0,t3
9d005f54:	008b282b 	sltu	a1,a0,t3
9d005f58:	54a00001 	bnezl	a1,9d005f60 <__umoddi3+0x3c0>
9d005f5c:	00892021 	addu	a0,a0,t1
9d005f60:	008b2023 	subu	a0,a0,t3
9d005f64:	0083001b 	divu	zero,a0,v1
9d005f68:	006001f4 	teq	v1,zero,0x7
9d005f6c:	318cffff 	andi	t4,t4,0xffff
9d005f70:	00002812 	mflo	a1
9d005f74:	00003810 	mfhi	a3
9d005f78:	70aa2802 	mul	a1,a1,t2
9d005f7c:	00073400 	sll	a2,a3,0x10
9d005f80:	00cc3025 	or	a2,a2,t4
9d005f84:	00c5382b 	sltu	a3,a2,a1
9d005f88:	0083001b 	divu	zero,a0,v1
9d005f8c:	006001f4 	teq	v1,zero,0x7
9d005f90:	50e0ff5d 	beqzl	a3,9d005d08 <__umoddi3+0x168>
9d005f94:	00c53023 	subu	a2,a2,a1
9d005f98:	00c93021 	addu	a2,a2,t1
9d005f9c:	00c9202b 	sltu	a0,a2,t1
9d005fa0:	5480ff59 	bnezl	a0,9d005d08 <__umoddi3+0x168>
9d005fa4:	00c53023 	subu	a2,a2,a1
9d005fa8:	00c5202b 	sltu	a0,a2,a1
9d005fac:	54800001 	bnezl	a0,9d005fb4 <__umoddi3+0x414>
9d005fb0:	00c93021 	addu	a2,a2,t1
9d005fb4:	0b401742 	j	9d005d08 <__umoddi3+0x168>
9d005fb8:	00c53023 	subu	a2,a2,a1
9d005fbc:	00464023 	subu	t0,v0,a2
9d005fc0:	00eb1823 	subu	v1,a3,t3
9d005fc4:	0048102b 	sltu	v0,v0,t0
9d005fc8:	0b4017b2 	j	9d005ec8 <__umoddi3+0x328>
9d005fcc:	00621823 	subu	v1,v1,v0
9d005fd0:	5460fffb 	bnezl	v1,9d005fc0 <__umoddi3+0x420>
9d005fd4:	00464023 	subu	t0,v0,a2
9d005fd8:	0b4017b3 	j	9d005ecc <__umoddi3+0x32c>
9d005fdc:	00001821 	move	v1,zero
9d005fe0:	03e00008 	jr	ra
9d005fe4:	00000000 	nop

Disassembly of section .text.dp32subadd:

9d005fe8 <__subdf3>:
9d005fe8:	3c018000 00e13826                       ...<&8..

9d005ff0 <__adddf3>:
9d005ff0:	00055840 000b5d42 000552c0 00047d42     @X..B]...R..B}..
9d006000:	014f5025 00044ac0 3c088000 01485025     %PO..J.....<%PH.
9d006010:	00077040 000e7542 00076ac0 00067d42     @p..Bu...j..B}..
9d006020:	01af6825 000662c0 01a86825 256fffff     %h...b..%h....o%
9d006030:	2de107fe 1020008d 00000000              ...-.. .....

9d00603c <Blab1>:
9d00603c:	25cfffff 	addiu	t7,t6,-1
9d006040:	2de107fe 	sltiu	at,t7,2046
9d006044:	102000bb 	beqz	at,9d006334 <BspecB>
9d006048:	00000000 	nop

9d00604c <Blab2>:
9d00604c:	3c018000 	lui	at,0x8000
9d006050:	00a12824 	and	a1,a1,at
9d006054:	016e4023 	subu	t0,t3,t6
9d006058:	1100002c 	beqz	t0,9d00610c <Badd3>
9d00605c:	00000000 	nop
9d006060:	19000015 	blez	t0,9d0060b8 <i1>
9d006064:	00000000 	nop

9d006068 <L1>:
9d006068:	2d010020 	sltiu	at,t0,32
9d00606c:	14200007 	bnez	at,9d00608c <L2>
9d006070:	00000000 	nop
9d006074:	2108ffe0 	addi	t0,t0,-32
9d006078:	000c302b 	sltu	a2,zero,t4
9d00607c:	100d0023 	beq	zero,t5,9d00610c <Badd3>
9d006080:	01a66025 	or	t4,t5,a2
9d006084:	1000fff8 	b	9d006068 <L1>
9d006088:	340d0000 	li	t5,0x0

9d00608c <L2>:
9d00608c:	1100001f 	beqz	t0,9d00610c <Badd3>
9d006090:	00000000 	nop
9d006094:	00082022 	neg	a0,t0
9d006098:	008c3004 	sllv	a2,t4,a0
9d00609c:	008d2004 	sllv	a0,t5,a0
9d0060a0:	010c6006 	srlv	t4,t4,t0
9d0060a4:	010d6806 	srlv	t5,t5,t0
9d0060a8:	10c00018 	beqz	a2,9d00610c <Badd3>
9d0060ac:	008c6025 	or	t4,a0,t4
9d0060b0:	10000016 	b	9d00610c <Badd3>
9d0060b4:	358c0002 	ori	t4,t4,0x2

9d0060b8 <i1>:
9d0060b8:	000e5825 	or	t3,zero,t6
9d0060bc:	00084023 	negu	t0,t0

9d0060c0 <L4>:
9d0060c0:	2d010020 	sltiu	at,t0,32
9d0060c4:	14200007 	bnez	at,9d0060e4 <L5>
9d0060c8:	00000000 	nop
9d0060cc:	2108ffe0 	addi	t0,t0,-32
9d0060d0:	0009302b 	sltu	a2,zero,t1
9d0060d4:	100a000d 	beq	zero,t2,9d00610c <Badd3>
9d0060d8:	01464825 	or	t1,t2,a2
9d0060dc:	1000fff8 	b	9d0060c0 <L4>
9d0060e0:	340a0000 	li	t2,0x0

9d0060e4 <L5>:
9d0060e4:	11000009 	beqz	t0,9d00610c <Badd3>
9d0060e8:	00000000 	nop
9d0060ec:	00082022 	neg	a0,t0
9d0060f0:	00893004 	sllv	a2,t1,a0
9d0060f4:	008a2004 	sllv	a0,t2,a0
9d0060f8:	01094806 	srlv	t1,t1,t0
9d0060fc:	010a5006 	srlv	t2,t2,t0
9d006100:	10c00002 	beqz	a2,9d00610c <Badd3>
9d006104:	00894825 	or	t1,a0,t1
9d006108:	35290002 	ori	t1,t1,0x2

9d00610c <Badd3>:
9d00610c:	00a77826 	xor	t7,a1,a3
9d006110:	05e0001c 	bltz	t7,9d006184 <Bsub1>
9d006114:	00000000 	nop
9d006118:	012c4821 	addu	t1,t1,t4
9d00611c:	012c782b 	sltu	t7,t1,t4
9d006120:	014d5021 	addu	t2,t2,t5
9d006124:	014f5021 	addu	t2,t2,t7
9d006128:	114d0002 	beq	t2,t5,9d006134 <L7>
9d00612c:	00000000 	nop
9d006130:	014d782b 	sltu	t7,t2,t5

9d006134 <L7>:
9d006134:	11e00037 	beqz	t7,9d006214 <Bres>
9d006138:	00000000 	nop
9d00613c:	312f0001 	andi	t7,t1,0x1
9d006140:	11e00002 	beqz	t7,9d00614c <i3>
9d006144:	00000000 	nop
9d006148:	35290002 	ori	t1,t1,0x2

9d00614c <i3>:
9d00614c:	00094842 	srl	t1,t1,0x1
9d006150:	000a7fc0 	sll	t7,t2,0x1f
9d006154:	012f4825 	or	t1,t1,t7
9d006158:	000a5042 	srl	t2,t2,0x1
9d00615c:	3c018000 	lui	at,0x8000
9d006160:	01415025 	or	t2,t2,at
9d006164:	256b0001 	addiu	t3,t3,1
9d006168:	240107ff 	li	at,2047
9d00616c:	15610029 	bne	t3,at,9d006214 <Bres>
9d006170:	00000000 	nop
9d006174:	3c017ff0 	lui	at,0x7ff0
9d006178:	00a12825 	or	a1,a1,at
9d00617c:	10000037 	b	9d00625c <BretA>
9d006180:	24040000 	li	a0,0

9d006184 <Bsub1>:
9d006184:	012c782b 	sltu	t7,t1,t4
9d006188:	012c4823 	subu	t1,t1,t4
9d00618c:	014f102b 	sltu	v0,t2,t7
9d006190:	014f5023 	subu	t2,t2,t7
9d006194:	014d782b 	sltu	t7,t2,t5
9d006198:	01e27825 	or	t7,t7,v0
9d00619c:	11e00007 	beqz	t7,9d0061bc <i5>
9d0061a0:	014d5023 	subu	t2,t2,t5
9d0061a4:	3c018000 	lui	at,0x8000
9d0061a8:	00a12826 	xor	a1,a1,at
9d0061ac:	0009782b 	sltu	t7,zero,t1
9d0061b0:	00094823 	negu	t1,t1
9d0061b4:	000a5023 	negu	t2,t2
9d0061b8:	014f5023 	subu	t2,t2,t7

9d0061bc <i5>:
9d0061bc:	15400008 	bnez	t2,9d0061e0 <L8>
9d0061c0:	00000000 	nop
9d0061c4:	15200003 	bnez	t1,9d0061d4 <L9>
9d0061c8:	00000000 	nop
9d0061cc:	1000000d 	b	9d006204 <L10>
9d0061d0:	240b0000 	li	t3,0

9d0061d4 <L9>:
9d0061d4:	01205025 	move	t2,t1
9d0061d8:	24090000 	li	t1,0
9d0061dc:	256bffe0 	addiu	t3,t3,-32

9d0061e0 <L8>:
9d0061e0:	71484020 	clz	t0,t2
9d0061e4:	11000007 	beqz	t0,9d006204 <L10>
9d0061e8:	00000000 	nop
9d0061ec:	01685823 	subu	t3,t3,t0
9d0061f0:	00082022 	neg	a0,t0
9d0061f4:	00892006 	srlv	a0,t1,a0
9d0061f8:	01094804 	sllv	t1,t1,t0
9d0061fc:	010a5004 	sllv	t2,t2,t0
9d006200:	01445025 	or	t2,t2,a0

9d006204 <L10>:
9d006204:	01497825 	or	t7,t2,t1
9d006208:	15e00002 	bnez	t7,9d006214 <Bres>
9d00620c:	00000000 	nop
9d006210:	24050000 	li	a1,0

9d006214 <Bres>:
9d006214:	19600068 	blez	t3,9d0063b8 <Bund>
9d006218:	00000000 	nop

9d00621c <Blab8>:
9d00621c:	25290400 	addiu	t1,t1,1024
9d006220:	2d2f0400 	sltiu	t7,t1,1024
9d006224:	014f5021 	addu	t2,t2,t7
9d006228:	014f782b 	sltu	t7,t2,t7
9d00622c:	016f5821 	addu	t3,t3,t7
9d006230:	00097ac2 	srl	t7,t1,0xb
9d006234:	31ef0001 	andi	t7,t7,0x1
9d006238:	012f4823 	subu	t1,t1,t7
9d00623c:	000922c2 	srl	a0,t1,0xb
9d006240:	000a7d40 	sll	t7,t2,0x15
9d006244:	008f2025 	or	a0,a0,t7
9d006248:	000a7840 	sll	t7,t2,0x1
9d00624c:	000f7b02 	srl	t7,t7,0xc
9d006250:	00af2825 	or	a1,a1,t7
9d006254:	000b7d00 	sll	t7,t3,0x14
9d006258:	00af2825 	or	a1,a1,t7

9d00625c <BretA>:
9d00625c:	00041025 	or	v0,zero,a0
9d006260:	00051825 	or	v1,zero,a1

9d006264 <B999>:
9d006264:	03e00008 	jr	ra
9d006268:	00000000 	nop

9d00626c <BspecA>:
9d00626c:	0120782a 	slt	t7,t1,zero
9d006270:	01294821 	addu	t1,t1,t1
9d006274:	014a5021 	addu	t2,t2,t2
9d006278:	15600023 	bnez	t3,9d006308 <i7>
9d00627c:	014f5021 	addu	t2,t2,t7
9d006280:	01497825 	or	t7,t2,t1
9d006284:	11e00014 	beqz	t7,9d0062d8 <i8>
9d006288:	00000000 	nop
9d00628c:	15400008 	bnez	t2,9d0062b0 <L11>
9d006290:	00000000 	nop
9d006294:	15200003 	bnez	t1,9d0062a4 <L12>
9d006298:	00000000 	nop
9d00629c:	1000ff67 	b	9d00603c <Blab1>
9d0062a0:	240b0000 	li	t3,0

9d0062a4 <L12>:
9d0062a4:	01205025 	move	t2,t1
9d0062a8:	24090000 	li	t1,0
9d0062ac:	256bffe0 	addiu	t3,t3,-32

9d0062b0 <L11>:
9d0062b0:	71484020 	clz	t0,t2
9d0062b4:	1100ff61 	beqz	t0,9d00603c <Blab1>
9d0062b8:	00000000 	nop
9d0062bc:	01685823 	subu	t3,t3,t0
9d0062c0:	00082022 	neg	a0,t0
9d0062c4:	00892006 	srlv	a0,t1,a0
9d0062c8:	01094804 	sllv	t1,t1,t0
9d0062cc:	010a5004 	sllv	t2,t2,t0
9d0062d0:	1000ff5a 	b	9d00603c <Blab1>
9d0062d4:	01445025 	or	t2,t2,a0

9d0062d8 <i8>:
9d0062d8:	240107ff 	li	at,2047
9d0062dc:	11c10015 	beq	t6,at,9d006334 <BspecB>
9d0062e0:	00000000 	nop
9d0062e4:	00e74021 	addu	t0,a3,a3
9d0062e8:	01067825 	or	t7,t0,a2
9d0062ec:	15e00003 	bnez	t7,9d0062fc <BretB>
9d0062f0:	00000000 	nop
9d0062f4:	04e0ffd9 	bltz	a3,9d00625c <BretA>
9d0062f8:	00000000 	nop

9d0062fc <BretB>:
9d0062fc:	00061025 	or	v0,zero,a2
9d006300:	1000ffd8 	b	9d006264 <B999>
9d006304:	00071825 	or	v1,zero,a3

9d006308 <i7>:
9d006308:	01497825 	or	t7,t2,t1
9d00630c:	15e00027 	bnez	t7,9d0063ac <Bnan>
9d006310:	00000000 	nop
9d006314:	240107ff 	li	at,2047
9d006318:	15c1ffd0 	bne	t6,at,9d00625c <BretA>
9d00631c:	00000000 	nop
9d006320:	00a77826 	xor	t7,a1,a3
9d006324:	05e00021 	bltz	t7,9d0063ac <Bnan>
9d006328:	00000000 	nop
9d00632c:	1000fff3 	b	9d0062fc <BretB>
9d006330:	00000000 	nop

9d006334 <BspecB>:
9d006334:	0180782a 	slt	t7,t4,zero
9d006338:	018c6021 	addu	t4,t4,t4
9d00633c:	01ad6821 	addu	t5,t5,t5
9d006340:	15c00017 	bnez	t6,9d0063a0 <i11>
9d006344:	01af6821 	addu	t5,t5,t7
9d006348:	01ac7825 	or	t7,t5,t4
9d00634c:	11e0ffc3 	beqz	t7,9d00625c <BretA>
9d006350:	00000000 	nop
9d006354:	15a00008 	bnez	t5,9d006378 <L14>
9d006358:	00000000 	nop
9d00635c:	15800003 	bnez	t4,9d00636c <L15>
9d006360:	00000000 	nop
9d006364:	1000ff39 	b	9d00604c <Blab2>
9d006368:	240e0000 	li	t6,0

9d00636c <L15>:
9d00636c:	01806825 	move	t5,t4
9d006370:	240c0000 	li	t4,0
9d006374:	25ceffe0 	addiu	t6,t6,-32

9d006378 <L14>:
9d006378:	71a84020 	clz	t0,t5
9d00637c:	1100ff33 	beqz	t0,9d00604c <Blab2>
9d006380:	00000000 	nop
9d006384:	01c87023 	subu	t6,t6,t0
9d006388:	00082022 	neg	a0,t0
9d00638c:	008c2006 	srlv	a0,t4,a0
9d006390:	010c6004 	sllv	t4,t4,t0
9d006394:	010d6804 	sllv	t5,t5,t0
9d006398:	1000ff2c 	b	9d00604c <Blab2>
9d00639c:	01a46825 	or	t5,t5,a0

9d0063a0 <i11>:
9d0063a0:	01ac7825 	or	t7,t5,t4
9d0063a4:	11e0ffd5 	beqz	t7,9d0062fc <BretB>
9d0063a8:	00000000 	nop

9d0063ac <Bnan>:
9d0063ac:	3c05fff8 	lui	a1,0xfff8
9d0063b0:	1000ffaa 	b	9d00625c <BretA>
9d0063b4:	24040000 	li	a0,0

9d0063b8 <Bund>:
9d0063b8:	24080001 	li	t0,1
9d0063bc:	010b4023 	subu	t0,t0,t3

9d0063c0 <L17>:
9d0063c0:	2d010020 	sltiu	at,t0,32
9d0063c4:	14200007 	bnez	at,9d0063e4 <L18>
9d0063c8:	00000000 	nop
9d0063cc:	2108ffe0 	addi	t0,t0,-32
9d0063d0:	0009302b 	sltu	a2,zero,t1
9d0063d4:	100a000d 	beq	zero,t2,9d00640c <L19>
9d0063d8:	01464825 	or	t1,t2,a2
9d0063dc:	1000fff8 	b	9d0063c0 <L17>
9d0063e0:	340a0000 	li	t2,0x0

9d0063e4 <L18>:
9d0063e4:	11000009 	beqz	t0,9d00640c <L19>
9d0063e8:	00000000 	nop
9d0063ec:	00082022 	neg	a0,t0
9d0063f0:	00893004 	sllv	a2,t1,a0
9d0063f4:	008a2004 	sllv	a0,t2,a0
9d0063f8:	01094806 	srlv	t1,t1,t0
9d0063fc:	010a5006 	srlv	t2,t2,t0
9d006400:	10c00002 	beqz	a2,9d00640c <L19>
9d006404:	00894825 	or	t1,a0,t1
9d006408:	35290002 	ori	t1,t1,0x2

9d00640c <L19>:
9d00640c:	1000ff83 	b	9d00621c <Blab8>
9d006410:	240b0000 	li	t3,0
9d006414:	00000000 	nop

Disassembly of section .text.__strtod:

9d006418 <__strtod>:
9d006418:	27bdffc0 	addiu	sp,sp,-64
9d00641c:	afbe0038 	sw	s8,56(sp)
9d006420:	afb5002c 	sw	s5,44(sp)
9d006424:	afb30024 	sw	s3,36(sp)
9d006428:	afbf003c 	sw	ra,60(sp)
9d00642c:	afb70034 	sw	s7,52(sp)
9d006430:	afb60030 	sw	s6,48(sp)
9d006434:	afb40028 	sw	s4,40(sp)
9d006438:	afb20020 	sw	s2,32(sp)
9d00643c:	afb1001c 	sw	s1,28(sp)
9d006440:	afb00018 	sw	s0,24(sp)
9d006444:	80820000 	lb	v0,0(a0)
9d006448:	3c139d01 	lui	s3,0x9d01
9d00644c:	26738b24 	addiu	s3,s3,-29916
9d006450:	02621821 	addu	v1,s3,v0
9d006454:	80630001 	lb	v1,1(v1)
9d006458:	0080a821 	move	s5,a0
9d00645c:	30630088 	andi	v1,v1,0x88
9d006460:	106000db 	beqz	v1,9d0067d0 <__strtod+0x3b8>
9d006464:	00a0f021 	move	s8,a1
9d006468:	00809021 	move	s2,a0
9d00646c:	26520001 	addiu	s2,s2,1
9d006470:	82420000 	lb	v0,0(s2)
9d006474:	02621821 	addu	v1,s3,v0
9d006478:	80630001 	lb	v1,1(v1)
9d00647c:	30630088 	andi	v1,v1,0x88
9d006480:	5460fffb 	bnezl	v1,9d006470 <__strtod+0x58>
9d006484:	26520001 	addiu	s2,s2,1
9d006488:	2403002d 	li	v1,45
9d00648c:	10430098 	beq	v0,v1,9d0066f0 <__strtod+0x2d8>
9d006490:	2403002b 	li	v1,43
9d006494:	504300bb 	beql	v0,v1,9d006784 <__strtod+0x36c>
9d006498:	26520001 	addiu	s2,s2,1
9d00649c:	afa00010 	sw	zero,16(sp)
9d0064a0:	82420000 	lb	v0,0(s2)
9d0064a4:	02621821 	addu	v1,s3,v0
9d0064a8:	90630001 	lbu	v1,1(v1)
9d0064ac:	30630004 	andi	v1,v1,0x4
9d0064b0:	106000c3 	beqz	v1,9d0067c0 <__strtod+0x3a8>
9d0064b4:	00008021 	move	s0,zero
9d0064b8:	00008821 	move	s1,zero
9d0064bc:	0000a021 	move	s4,zero
9d0064c0:	02202821 	move	a1,s1
9d0064c4:	2456ffd0 	addiu	s6,v0,-48
9d0064c8:	02002021 	move	a0,s0
9d0064cc:	00003021 	move	a2,zero
9d0064d0:	0f401bac 	jal	9d006eb0 <.LFE12>
9d0064d4:	3c074024 	lui	a3,0x4024
9d0064d8:	02c02021 	move	a0,s6
9d0064dc:	00408021 	move	s0,v0
9d0064e0:	0f4025f7 	jal	9d0097dc <__floatsidf>
9d0064e4:	00608821 	move	s1,v1
9d0064e8:	00403021 	move	a2,v0
9d0064ec:	02002021 	move	a0,s0
9d0064f0:	02202821 	move	a1,s1
9d0064f4:	0f4017fc 	jal	9d005ff0 <__adddf3>
9d0064f8:	00603821 	move	a3,v1
9d0064fc:	26520001 	addiu	s2,s2,1
9d006500:	00408021 	move	s0,v0
9d006504:	82420000 	lb	v0,0(s2)
9d006508:	00608821 	move	s1,v1
9d00650c:	02621821 	addu	v1,s3,v0
9d006510:	90630001 	lbu	v1,1(v1)
9d006514:	30630004 	andi	v1,v1,0x4
9d006518:	1460ffe9 	bnez	v1,9d0064c0 <__strtod+0xa8>
9d00651c:	0296a025 	or	s4,s4,s6
9d006520:	24040001 	li	a0,1
9d006524:	2403002e 	li	v1,46
9d006528:	50430049 	beql	v0,v1,9d006650 <__strtod+0x238>
9d00652c:	26520001 	addiu	s2,s2,1
9d006530:	14800073 	bnez	a0,9d006700 <__strtod+0x2e8>
9d006534:	0000b021 	move	s6,zero
9d006538:	13c00004 	beqz	s8,9d00654c <__strtod+0x134>
9d00653c:	00000000 	nop
9d006540:	50800041 	beqzl	a0,9d006648 <__strtod+0x230>
9d006544:	02a09021 	move	s2,s5
9d006548:	afd20000 	sw	s2,0(s8)
9d00654c:	12c00023 	beqz	s6,9d0065dc <__strtod+0x1c4>
9d006550:	00000000 	nop
9d006554:	06c00094 	bltz	s6,9d0067a8 <__strtod+0x390>
9d006558:	02c0a821 	move	s5,s6
9d00655c:	3c139d01 	lui	s3,0x9d01
9d006560:	26739bc0 	addiu	s3,s3,-25664
9d006564:	24120008 	li	s2,8
9d006568:	00001021 	move	v0,zero
9d00656c:	3c033ff0 	lui	v1,0x3ff0
9d006570:	0b401960 	j	9d006580 <__strtod+0x168>
9d006574:	2417ffff 	li	s7,-1
9d006578:	1257000c 	beq	s2,s7,9d0065ac <__strtod+0x194>
9d00657c:	2673fff8 	addiu	s3,s3,-8
9d006580:	02552007 	srav	a0,s5,s2
9d006584:	30840001 	andi	a0,a0,0x1
9d006588:	1080fffb 	beqz	a0,9d006578 <__strtod+0x160>
9d00658c:	2652ffff 	addiu	s2,s2,-1
9d006590:	8e660040 	lw	a2,64(s3)
9d006594:	8e670044 	lw	a3,68(s3)
9d006598:	00402021 	move	a0,v0
9d00659c:	0f401bac 	jal	9d006eb0 <.LFE12>
9d0065a0:	00602821 	move	a1,v1
9d0065a4:	1657fff6 	bne	s2,s7,9d006580 <__strtod+0x168>
9d0065a8:	2673fff8 	addiu	s3,s3,-8
9d0065ac:	06c00077 	bltz	s6,9d00678c <__strtod+0x374>
9d0065b0:	02002021 	move	a0,s0
9d0065b4:	02202821 	move	a1,s1
9d0065b8:	00403021 	move	a2,v0
9d0065bc:	0f401bac 	jal	9d006eb0 <.LFE12>
9d0065c0:	00603821 	move	a3,v1
9d0065c4:	00402021 	move	a0,v0
9d0065c8:	00602821 	move	a1,v1
9d0065cc:	0f401ed1 	jal	9d007b44 <.LFE29>
9d0065d0:	02c03021 	move	a2,s6
9d0065d4:	00408021 	move	s0,v0
9d0065d8:	00608821 	move	s1,v1
9d0065dc:	12000087 	beqz	s0,9d0067fc <__strtod+0x3e4>
9d0065e0:	7e22f000 	ext	v0,s1,0x0,0x1f
9d0065e4:	02111025 	or	v0,s0,s1
9d0065e8:	1040007e 	beqz	v0,9d0067e4 <__strtod+0x3cc>
9d0065ec:	00000000 	nop
9d0065f0:	8fa20010 	lw	v0,16(sp)
9d0065f4:	10400007 	beqz	v0,9d006614 <__strtod+0x1fc>
9d0065f8:	8fbf003c 	lw	ra,60(sp)
9d0065fc:	02002021 	move	a0,s0
9d006600:	0f40278a 	jal	9d009e28 <.LFE1>
9d006604:	02202821 	move	a1,s1
9d006608:	00408021 	move	s0,v0
9d00660c:	00608821 	move	s1,v1
9d006610:	8fbf003c 	lw	ra,60(sp)
9d006614:	02001021 	move	v0,s0
9d006618:	02201821 	move	v1,s1
9d00661c:	8fbe0038 	lw	s8,56(sp)
9d006620:	8fb70034 	lw	s7,52(sp)
9d006624:	8fb60030 	lw	s6,48(sp)
9d006628:	8fb5002c 	lw	s5,44(sp)
9d00662c:	8fb40028 	lw	s4,40(sp)
9d006630:	8fb30024 	lw	s3,36(sp)
9d006634:	8fb20020 	lw	s2,32(sp)
9d006638:	8fb1001c 	lw	s1,28(sp)
9d00663c:	8fb00018 	lw	s0,24(sp)
9d006640:	03e00008 	jr	ra
9d006644:	27bd0040 	addiu	sp,sp,64
9d006648:	0b401953 	j	9d00654c <__strtod+0x134>
9d00664c:	afd20000 	sw	s2,0(s8)
9d006650:	82430000 	lb	v1,0(s2)
9d006654:	02631021 	addu	v0,s3,v1
9d006658:	90450001 	lbu	a1,1(v0)
9d00665c:	30a50004 	andi	a1,a1,0x4
9d006660:	10a0ffb3 	beqz	a1,9d006530 <__strtod+0x118>
9d006664:	00601021 	move	v0,v1
9d006668:	0000b021 	move	s6,zero
9d00666c:	02202821 	move	a1,s1
9d006670:	2477ffd0 	addiu	s7,v1,-48
9d006674:	02002021 	move	a0,s0
9d006678:	00003021 	move	a2,zero
9d00667c:	0f401bac 	jal	9d006eb0 <.LFE12>
9d006680:	3c074024 	lui	a3,0x4024
9d006684:	02e02021 	move	a0,s7
9d006688:	00408021 	move	s0,v0
9d00668c:	0f4025f7 	jal	9d0097dc <__floatsidf>
9d006690:	00608821 	move	s1,v1
9d006694:	00403021 	move	a2,v0
9d006698:	02002021 	move	a0,s0
9d00669c:	02202821 	move	a1,s1
9d0066a0:	0f4017fc 	jal	9d005ff0 <__adddf3>
9d0066a4:	00603821 	move	a3,v1
9d0066a8:	26520001 	addiu	s2,s2,1
9d0066ac:	00608821 	move	s1,v1
9d0066b0:	82430000 	lb	v1,0(s2)
9d0066b4:	00408021 	move	s0,v0
9d0066b8:	02631021 	addu	v0,s3,v1
9d0066bc:	90420001 	lbu	v0,1(v0)
9d0066c0:	0297a025 	or	s4,s4,s7
9d0066c4:	30420004 	andi	v0,v0,0x4
9d0066c8:	1440ffe8 	bnez	v0,9d00666c <__strtod+0x254>
9d0066cc:	26d6ffff 	addiu	s6,s6,-1
9d0066d0:	24020065 	li	v0,101
9d0066d4:	5062000f 	beql	v1,v0,9d006714 <__strtod+0x2fc>
9d0066d8:	26520001 	addiu	s2,s2,1
9d0066dc:	24020045 	li	v0,69
9d0066e0:	1062000b 	beq	v1,v0,9d006710 <__strtod+0x2f8>
9d0066e4:	24040001 	li	a0,1
9d0066e8:	0b40194e 	j	9d006538 <__strtod+0x120>
9d0066ec:	00000000 	nop
9d0066f0:	24020001 	li	v0,1
9d0066f4:	26520001 	addiu	s2,s2,1
9d0066f8:	0b401928 	j	9d0064a0 <__strtod+0x88>
9d0066fc:	afa20010 	sw	v0,16(sp)
9d006700:	00401821 	move	v1,v0
9d006704:	24020065 	li	v0,101
9d006708:	1462fff5 	bne	v1,v0,9d0066e0 <__strtod+0x2c8>
9d00670c:	24020045 	li	v0,69
9d006710:	26520001 	addiu	s2,s2,1
9d006714:	82420000 	lb	v0,0(s2)
9d006718:	2403002d 	li	v1,45
9d00671c:	10430024 	beq	v0,v1,9d0067b0 <__strtod+0x398>
9d006720:	2403002b 	li	v1,43
9d006724:	5043002c 	beql	v0,v1,9d0067d8 <__strtod+0x3c0>
9d006728:	26520001 	addiu	s2,s2,1
9d00672c:	00002821 	move	a1,zero
9d006730:	02621821 	addu	v1,s3,v0
9d006734:	90630001 	lbu	v1,1(v1)
9d006738:	30630004 	andi	v1,v1,0x4
9d00673c:	1060000c 	beqz	v1,9d006770 <__strtod+0x358>
9d006740:	00001821 	move	v1,zero
9d006744:	00032040 	sll	a0,v1,0x1
9d006748:	000318c0 	sll	v1,v1,0x3
9d00674c:	00831821 	addu	v1,a0,v1
9d006750:	26520001 	addiu	s2,s2,1
9d006754:	00621821 	addu	v1,v1,v0
9d006758:	82420000 	lb	v0,0(s2)
9d00675c:	02622021 	addu	a0,s3,v0
9d006760:	90840001 	lbu	a0,1(a0)
9d006764:	30840004 	andi	a0,a0,0x4
9d006768:	1480fff6 	bnez	a0,9d006744 <__strtod+0x32c>
9d00676c:	2463ffd0 	addiu	v1,v1,-48
9d006770:	54a00001 	bnezl	a1,9d006778 <__strtod+0x360>
9d006774:	00031823 	negu	v1,v1
9d006778:	02c3b021 	addu	s6,s6,v1
9d00677c:	0b40194e 	j	9d006538 <__strtod+0x120>
9d006780:	24040001 	li	a0,1
9d006784:	0b401928 	j	9d0064a0 <__strtod+0x88>
9d006788:	afa00010 	sw	zero,16(sp)
9d00678c:	02202821 	move	a1,s1
9d006790:	00403021 	move	a2,v0
9d006794:	0f40126c 	jal	9d0049b0 <.LFE7>
9d006798:	00603821 	move	a3,v1
9d00679c:	00402021 	move	a0,v0
9d0067a0:	0b401973 	j	9d0065cc <__strtod+0x1b4>
9d0067a4:	00602821 	move	a1,v1
9d0067a8:	0b401957 	j	9d00655c <__strtod+0x144>
9d0067ac:	0016a823 	negu	s5,s6
9d0067b0:	26520001 	addiu	s2,s2,1
9d0067b4:	82420000 	lb	v0,0(s2)
9d0067b8:	0b4019cc 	j	9d006730 <__strtod+0x318>
9d0067bc:	24050001 	li	a1,1
9d0067c0:	00008821 	move	s1,zero
9d0067c4:	00002021 	move	a0,zero
9d0067c8:	0b401949 	j	9d006524 <__strtod+0x10c>
9d0067cc:	0000a021 	move	s4,zero
9d0067d0:	0b401922 	j	9d006488 <__strtod+0x70>
9d0067d4:	00809021 	move	s2,a0
9d0067d8:	82420000 	lb	v0,0(s2)
9d0067dc:	0b4019cc 	j	9d006730 <__strtod+0x318>
9d0067e0:	00002821 	move	a1,zero
9d0067e4:	1280ff83 	beqz	s4,9d0065f4 <__strtod+0x1dc>
9d0067e8:	8fa20010 	lw	v0,16(sp)
9d0067ec:	24030022 	li	v1,34
9d0067f0:	3c02a000 	lui	v0,0xa000
9d0067f4:	0b40197c 	j	9d0065f0 <__strtod+0x1d8>
9d0067f8:	ac430088 	sw	v1,136(v0)
9d0067fc:	3c037ff0 	lui	v1,0x7ff0
9d006800:	1443ff79 	bne	v0,v1,9d0065e8 <__strtod+0x1d0>
9d006804:	02111025 	or	v0,s0,s1
9d006808:	0b4019fc 	j	9d0067f0 <__strtod+0x3d8>
9d00680c:	24030022 	li	v1,34

Disassembly of section .text.__strtof:

9d006810 <__strtof>:
9d006810:	27bdffc8 	addiu	sp,sp,-56
9d006814:	afb7002c 	sw	s7,44(sp)
9d006818:	afb60028 	sw	s6,40(sp)
9d00681c:	afb3001c 	sw	s3,28(sp)
9d006820:	afbf0034 	sw	ra,52(sp)
9d006824:	afbe0030 	sw	s8,48(sp)
9d006828:	afb50024 	sw	s5,36(sp)
9d00682c:	afb40020 	sw	s4,32(sp)
9d006830:	afb20018 	sw	s2,24(sp)
9d006834:	afb10014 	sw	s1,20(sp)
9d006838:	afb00010 	sw	s0,16(sp)
9d00683c:	80820000 	lb	v0,0(a0)
9d006840:	3c139d01 	lui	s3,0x9d01
9d006844:	26738b24 	addiu	s3,s3,-29916
9d006848:	02621821 	addu	v1,s3,v0
9d00684c:	80630001 	lb	v1,1(v1)
9d006850:	0080b021 	move	s6,a0
9d006854:	30630088 	andi	v1,v1,0x88
9d006858:	106000bf 	beqz	v1,9d006b58 <__strtof+0x348>
9d00685c:	00a0b821 	move	s7,a1
9d006860:	00808021 	move	s0,a0
9d006864:	26100001 	addiu	s0,s0,1
9d006868:	82020000 	lb	v0,0(s0)
9d00686c:	02621821 	addu	v1,s3,v0
9d006870:	80630001 	lb	v1,1(v1)
9d006874:	30630088 	andi	v1,v1,0x88
9d006878:	5460fffb 	bnezl	v1,9d006868 <__strtof+0x58>
9d00687c:	26100001 	addiu	s0,s0,1
9d006880:	2403002d 	li	v1,45
9d006884:	10430081 	beq	v0,v1,9d006a8c <__strtof+0x27c>
9d006888:	2403002b 	li	v1,43
9d00688c:	504300a3 	beql	v0,v1,9d006b1c <__strtof+0x30c>
9d006890:	26100001 	addiu	s0,s0,1
9d006894:	0000f021 	move	s8,zero
9d006898:	82020000 	lb	v0,0(s0)
9d00689c:	02621821 	addu	v1,s3,v0
9d0068a0:	90630001 	lbu	v1,1(v1)
9d0068a4:	30630004 	andi	v1,v1,0x4
9d0068a8:	106000a8 	beqz	v1,9d006b4c <__strtof+0x33c>
9d0068ac:	00008821 	move	s1,zero
9d0068b0:	0000a021 	move	s4,zero
9d0068b4:	2452ffd0 	addiu	s2,v0,-48
9d0068b8:	02202021 	move	a0,s1
9d0068bc:	0f401fb6 	jal	9d007ed8 <__mulsf3>
9d0068c0:	3c054120 	lui	a1,0x4120
9d0068c4:	02402021 	move	a0,s2
9d0068c8:	0f402649 	jal	9d009924 <__floatsisf>
9d0068cc:	00408821 	move	s1,v0
9d0068d0:	00402821 	move	a1,v0
9d0068d4:	0f401d21 	jal	9d007484 <__addsf3>
9d0068d8:	02202021 	move	a0,s1
9d0068dc:	26100001 	addiu	s0,s0,1
9d0068e0:	00408821 	move	s1,v0
9d0068e4:	82020000 	lb	v0,0(s0)
9d0068e8:	02621821 	addu	v1,s3,v0
9d0068ec:	90630001 	lbu	v1,1(v1)
9d0068f0:	30630004 	andi	v1,v1,0x4
9d0068f4:	1460ffef 	bnez	v1,9d0068b4 <__strtof+0xa4>
9d0068f8:	0292a025 	or	s4,s4,s2
9d0068fc:	24040001 	li	a0,1
9d006900:	2403002e 	li	v1,46
9d006904:	5043003f 	beql	v0,v1,9d006a04 <__strtof+0x1f4>
9d006908:	26100001 	addiu	s0,s0,1
9d00690c:	14800062 	bnez	a0,9d006a98 <__strtof+0x288>
9d006910:	00009021 	move	s2,zero
9d006914:	12e00004 	beqz	s7,9d006928 <__strtof+0x118>
9d006918:	00000000 	nop
9d00691c:	50800037 	beqzl	a0,9d0069fc <__strtof+0x1ec>
9d006920:	02c08021 	move	s0,s6
9d006924:	aef00000 	sw	s0,0(s7)
9d006928:	1240001d 	beqz	s2,9d0069a0 <__strtof+0x190>
9d00692c:	00111840 	sll	v1,s1,0x1
9d006930:	06400080 	bltz	s2,9d006b34 <__strtof+0x324>
9d006934:	0240a821 	move	s5,s2
9d006938:	3c139d01 	lui	s3,0x9d01
9d00693c:	26739f64 	addiu	s3,s3,-24732
9d006940:	24100005 	li	s0,5
9d006944:	3c023f80 	lui	v0,0x3f80
9d006948:	0b401a56 	j	9d006958 <__strtof+0x148>
9d00694c:	2416ffff 	li	s6,-1
9d006950:	1216000a 	beq	s0,s6,9d00697c <__strtof+0x16c>
9d006954:	2673fffc 	addiu	s3,s3,-4
9d006958:	02151807 	srav	v1,s5,s0
9d00695c:	30630001 	andi	v1,v1,0x1
9d006960:	1060fffb 	beqz	v1,9d006950 <__strtof+0x140>
9d006964:	2610ffff 	addiu	s0,s0,-1
9d006968:	8e650014 	lw	a1,20(s3)
9d00696c:	0f401fb6 	jal	9d007ed8 <__mulsf3>
9d006970:	00402021 	move	a0,v0
9d006974:	1616fff8 	bne	s0,s6,9d006958 <__strtof+0x148>
9d006978:	2673fffc 	addiu	s3,s3,-4
9d00697c:	06400069 	bltz	s2,9d006b24 <__strtof+0x314>
9d006980:	02202021 	move	a0,s1
9d006984:	0f401fb6 	jal	9d007ed8 <__mulsf3>
9d006988:	00402821 	move	a1,v0
9d00698c:	00402021 	move	a0,v0
9d006990:	0f40230a 	jal	9d008c28 <__ldexpf>
9d006994:	02402821 	move	a1,s2
9d006998:	00408821 	move	s1,v0
9d00699c:	00111840 	sll	v1,s1,0x1
9d0069a0:	3c02ff00 	lui	v0,0xff00
9d0069a4:	50620073 	beql	v1,v0,9d006b74 <__strtof+0x364>
9d0069a8:	24030022 	li	v1,34
9d0069ac:	1220006f 	beqz	s1,9d006b6c <__strtof+0x35c>
9d0069b0:	00000000 	nop
9d0069b4:	13c00005 	beqz	s8,9d0069cc <__strtof+0x1bc>
9d0069b8:	8fbf0034 	lw	ra,52(sp)
9d0069bc:	0f4027e4 	jal	9d009f90 <__negsf2>
9d0069c0:	02202021 	move	a0,s1
9d0069c4:	00408821 	move	s1,v0
9d0069c8:	8fbf0034 	lw	ra,52(sp)
9d0069cc:	02201021 	move	v0,s1
9d0069d0:	8fbe0030 	lw	s8,48(sp)
9d0069d4:	8fb7002c 	lw	s7,44(sp)
9d0069d8:	8fb60028 	lw	s6,40(sp)
9d0069dc:	8fb50024 	lw	s5,36(sp)
9d0069e0:	8fb40020 	lw	s4,32(sp)
9d0069e4:	8fb3001c 	lw	s3,28(sp)
9d0069e8:	8fb20018 	lw	s2,24(sp)
9d0069ec:	8fb10014 	lw	s1,20(sp)
9d0069f0:	8fb00010 	lw	s0,16(sp)
9d0069f4:	03e00008 	jr	ra
9d0069f8:	27bd0038 	addiu	sp,sp,56
9d0069fc:	0b401a4a 	j	9d006928 <__strtof+0x118>
9d006a00:	aef00000 	sw	s0,0(s7)
9d006a04:	82030000 	lb	v1,0(s0)
9d006a08:	02631021 	addu	v0,s3,v1
9d006a0c:	90450001 	lbu	a1,1(v0)
9d006a10:	30a50004 	andi	a1,a1,0x4
9d006a14:	10a0ffbd 	beqz	a1,9d00690c <__strtof+0xfc>
9d006a18:	00601021 	move	v0,v1
9d006a1c:	00009021 	move	s2,zero
9d006a20:	2475ffd0 	addiu	s5,v1,-48
9d006a24:	02202021 	move	a0,s1
9d006a28:	0f401fb6 	jal	9d007ed8 <__mulsf3>
9d006a2c:	3c054120 	lui	a1,0x4120
9d006a30:	02a02021 	move	a0,s5
9d006a34:	0f402649 	jal	9d009924 <__floatsisf>
9d006a38:	00408821 	move	s1,v0
9d006a3c:	00402821 	move	a1,v0
9d006a40:	02202021 	move	a0,s1
9d006a44:	0f401d21 	jal	9d007484 <__addsf3>
9d006a48:	26100001 	addiu	s0,s0,1
9d006a4c:	82030000 	lb	v1,0(s0)
9d006a50:	00408821 	move	s1,v0
9d006a54:	02631021 	addu	v0,s3,v1
9d006a58:	90420001 	lbu	v0,1(v0)
9d006a5c:	0295a025 	or	s4,s4,s5
9d006a60:	30420004 	andi	v0,v0,0x4
9d006a64:	1440ffee 	bnez	v0,9d006a20 <__strtof+0x210>
9d006a68:	2652ffff 	addiu	s2,s2,-1
9d006a6c:	24020065 	li	v0,101
9d006a70:	5062000e 	beql	v1,v0,9d006aac <__strtof+0x29c>
9d006a74:	26100001 	addiu	s0,s0,1
9d006a78:	24020045 	li	v0,69
9d006a7c:	1062000a 	beq	v1,v0,9d006aa8 <__strtof+0x298>
9d006a80:	24040001 	li	a0,1
9d006a84:	0b401a45 	j	9d006914 <__strtof+0x104>
9d006a88:	00000000 	nop
9d006a8c:	26100001 	addiu	s0,s0,1
9d006a90:	0b401a26 	j	9d006898 <__strtof+0x88>
9d006a94:	241e0001 	li	s8,1
9d006a98:	00401821 	move	v1,v0
9d006a9c:	24020065 	li	v0,101
9d006aa0:	1462fff6 	bne	v1,v0,9d006a7c <__strtof+0x26c>
9d006aa4:	24020045 	li	v0,69
9d006aa8:	26100001 	addiu	s0,s0,1
9d006aac:	82020000 	lb	v0,0(s0)
9d006ab0:	2403002d 	li	v1,45
9d006ab4:	10430021 	beq	v0,v1,9d006b3c <__strtof+0x32c>
9d006ab8:	2403002b 	li	v1,43
9d006abc:	50430028 	beql	v0,v1,9d006b60 <__strtof+0x350>
9d006ac0:	26100001 	addiu	s0,s0,1
9d006ac4:	00002821 	move	a1,zero
9d006ac8:	02621821 	addu	v1,s3,v0
9d006acc:	90630001 	lbu	v1,1(v1)
9d006ad0:	30630004 	andi	v1,v1,0x4
9d006ad4:	1060000c 	beqz	v1,9d006b08 <__strtof+0x2f8>
9d006ad8:	00001821 	move	v1,zero
9d006adc:	00032040 	sll	a0,v1,0x1
9d006ae0:	000318c0 	sll	v1,v1,0x3
9d006ae4:	00831821 	addu	v1,a0,v1
9d006ae8:	26100001 	addiu	s0,s0,1
9d006aec:	00621821 	addu	v1,v1,v0
9d006af0:	82020000 	lb	v0,0(s0)
9d006af4:	02622021 	addu	a0,s3,v0
9d006af8:	90840001 	lbu	a0,1(a0)
9d006afc:	30840004 	andi	a0,a0,0x4
9d006b00:	1480fff6 	bnez	a0,9d006adc <__strtof+0x2cc>
9d006b04:	2463ffd0 	addiu	v1,v1,-48
9d006b08:	54a00001 	bnezl	a1,9d006b10 <__strtof+0x300>
9d006b0c:	00031823 	negu	v1,v1
9d006b10:	02439021 	addu	s2,s2,v1
9d006b14:	0b401a45 	j	9d006914 <__strtof+0x104>
9d006b18:	24040001 	li	a0,1
9d006b1c:	0b401a26 	j	9d006898 <__strtof+0x88>
9d006b20:	0000f021 	move	s8,zero
9d006b24:	0f401dbd 	jal	9d0076f4 <__divsf3>
9d006b28:	00402821 	move	a1,v0
9d006b2c:	0b401a64 	j	9d006990 <__strtof+0x180>
9d006b30:	00402021 	move	a0,v0
9d006b34:	0b401a4e 	j	9d006938 <__strtof+0x128>
9d006b38:	0012a823 	negu	s5,s2
9d006b3c:	26100001 	addiu	s0,s0,1
9d006b40:	82020000 	lb	v0,0(s0)
9d006b44:	0b401ab2 	j	9d006ac8 <__strtof+0x2b8>
9d006b48:	24050001 	li	a1,1
9d006b4c:	00002021 	move	a0,zero
9d006b50:	0b401a40 	j	9d006900 <__strtof+0xf0>
9d006b54:	0000a021 	move	s4,zero
9d006b58:	0b401a20 	j	9d006880 <__strtof+0x70>
9d006b5c:	00808021 	move	s0,a0
9d006b60:	82020000 	lb	v0,0(s0)
9d006b64:	0b401ab2 	j	9d006ac8 <__strtof+0x2b8>
9d006b68:	00002821 	move	a1,zero
9d006b6c:	1280ff91 	beqz	s4,9d0069b4 <__strtof+0x1a4>
9d006b70:	24030022 	li	v1,34
9d006b74:	3c02a000 	lui	v0,0xa000
9d006b78:	0b401a6d 	j	9d0069b4 <__strtof+0x1a4>
9d006b7c:	ac430088 	sw	v1,136(v0)

Disassembly of section .text:

9d006b80 <NU32_ReadUART1>:
// Read from UART1
// block other functions until you get a '\r' or '\n'
// send the pointer to your char array and the number of elements in the array
void NU32_ReadUART1(char * message, int maxLength) {
  char data = 0;
  int complete = 0, num_bytes = 0;
9d006b80:	00003021 	move	a2,zero
  // loop until you get a '\r' or '\n'
  while (!complete) {
    if (U1STAbits.URXDA) { // if data is available
9d006b84:	3c03bf80 	lui	v1,0xbf80
      data = U1RXREG;      // read the data
9d006b88:	3c08bf80 	lui	t0,0xbf80
      if ((data == '\n') || (data == '\r')) {
9d006b8c:	2407000a 	li	a3,10
9d006b90:	0b401af5 	j	9d006bd4 <NU32_ReadUART1+0x54>
9d006b94:	2409000d 	li	t1,13
void NU32_ReadUART1(char * message, int maxLength) {
  char data = 0;
  int complete = 0, num_bytes = 0;
  // loop until you get a '\r' or '\n'
  while (!complete) {
    if (U1STAbits.URXDA) { // if data is available
9d006b98:	8c626010 	lw	v0,24592(v1)
9d006b9c:	30420001 	andi	v0,v0,0x1
9d006ba0:	1040fffd 	beqz	v0,9d006b98 <NU32_ReadUART1+0x18>
9d006ba4:	00000000 	nop
      data = U1RXREG;      // read the data
9d006ba8:	8d026030 	lw	v0,24624(t0)
9d006bac:	7c021420 	seb	v0,v0
      if ((data == '\n') || (data == '\r')) {
9d006bb0:	5047000f 	beql	v0,a3,9d006bf0 <NU32_ReadUART1+0x70>
9d006bb4:	00862021 	addu	a0,a0,a2
9d006bb8:	1049000c 	beq	v0,t1,9d006bec <NU32_ReadUART1+0x6c>
9d006bbc:	00865021 	addu	t2,a0,a2
        complete = 1;
      } else {
        message[num_bytes] = data;
9d006bc0:	a1420000 	sb	v0,0(t2)
        ++num_bytes;
9d006bc4:	24c60001 	addiu	a2,a2,1
        // roll over if the array is too small
        if (num_bytes >= maxLength) {
9d006bc8:	00c5102a 	slt	v0,a2,a1
9d006bcc:	50400001 	beqzl	v0,9d006bd4 <NU32_ReadUART1+0x54>
9d006bd0:	00003021 	move	a2,zero
void NU32_ReadUART1(char * message, int maxLength) {
  char data = 0;
  int complete = 0, num_bytes = 0;
  // loop until you get a '\r' or '\n'
  while (!complete) {
    if (U1STAbits.URXDA) { // if data is available
9d006bd4:	8c626010 	lw	v0,24592(v1)
9d006bd8:	30420001 	andi	v0,v0,0x1
9d006bdc:	1040ffee 	beqz	v0,9d006b98 <NU32_ReadUART1+0x18>
9d006be0:	00000000 	nop
9d006be4:	0b401aea 	j	9d006ba8 <NU32_ReadUART1+0x28>
9d006be8:	00000000 	nop
        }
      }
    }
  }
  // end the string
  message[num_bytes] = '\0';
9d006bec:	00862021 	addu	a0,a0,a2
}
9d006bf0:	03e00008 	jr	ra
9d006bf4:	a0800000 	sb	zero,0(a0)

9d006bf8 <NU32_WriteUART1>:

// Write a charater array using UART1
void NU32_WriteUART1(const char * string) {
  while (*string != '\0') {
9d006bf8:	80850000 	lb	a1,0(a0)
9d006bfc:	10a0000b 	beqz	a1,9d006c2c <NU32_WriteUART1+0x34>
9d006c00:	3c03bf80 	lui	v1,0xbf80
    while (U1STAbits.UTXBF) {
      ; // wait until tx buffer isn't full
    }
    U1TXREG = *string;
9d006c04:	3c06bf80 	lui	a2,0xbf80
}

// Write a charater array using UART1
void NU32_WriteUART1(const char * string) {
  while (*string != '\0') {
    while (U1STAbits.UTXBF) {
9d006c08:	8c626010 	lw	v0,24592(v1)
9d006c0c:	30420200 	andi	v0,v0,0x200
9d006c10:	1440fffd 	bnez	v0,9d006c08 <NU32_WriteUART1+0x10>
9d006c14:	00000000 	nop
      ; // wait until tx buffer isn't full
    }
    U1TXREG = *string;
9d006c18:	acc56020 	sw	a1,24608(a2)
    ++string;
9d006c1c:	24840001 	addiu	a0,a0,1
  message[num_bytes] = '\0';
}

// Write a charater array using UART1
void NU32_WriteUART1(const char * string) {
  while (*string != '\0') {
9d006c20:	80850000 	lb	a1,0(a0)
9d006c24:	14a0fff8 	bnez	a1,9d006c08 <NU32_WriteUART1+0x10>
9d006c28:	00000000 	nop
9d006c2c:	03e00008 	jr	ra
9d006c30:	00000000 	nop

9d006c34 <NU32_ReadCoreTimer>:
unsigned int NU32_ReadCoreTimer(void)
{
  // the core timer count is the Coprocessor 0 (cp0) COUNT register
  // This is part of the cpu.  For details see
  // Section 2 Cpu For Devices with the M4k Core of the PIC32 reference manual
  return _CP0_GET_COUNT(); 
9d006c34:	40024800 	mfc0	v0,c0_count
}
9d006c38:	03e00008 	jr	ra
9d006c3c:	00000000 	nop

9d006c40 <NU32_WriteCoreTimer>:

// write a value to the core timer (the timer that is part of the cpu)
void NU32_WriteCoreTimer(unsigned int value)
{
  // the core timer updates the cp0 COUNT register, so set that
  _CP0_SET_COUNT(value);
9d006c40:	40844800 	mtc0	a0,c0_count
9d006c44:	000000c0 	ehb
}
9d006c48:	03e00008 	jr	ra
9d006c4c:	00000000 	nop

9d006c50 <NU32_EnableInterrupts>:

// enable interrupts, and return the previous value of the cp0 STATUS register
unsigned int NU32_EnableInterrupts(void)
{
  return __builtin_enable_interrupts();
9d006c50:	41626020 	ei	v0
}
9d006c54:	03e00008 	jr	ra
9d006c58:	00000000 	nop

9d006c5c <NU32_DisableInterrupts>:

// disable interrupts and return the previous value of the cp0 STATUS register
unsigned int NU32_DisableInterrupts(void)
{
  return __builtin_disable_interrupts();
9d006c5c:	41626000 	di	v0
9d006c60:	000000c0 	ehb
}
9d006c64:	03e00008 	jr	ra
9d006c68:	00000000 	nop

9d006c6c <NU32_DisableUART1Interrupt>:
    NU32_EnableInterrupts();
  }
}

// Disable UART1 interrupt, so you can use NU32_ReadUART1 again
void NU32_DisableUART1Interrupt(void) {
9d006c6c:	27bdffe8 	addiu	sp,sp,-24
9d006c70:	afbf0014 	sw	ra,20(sp)
  unsigned int status = NU32_DisableInterrupts();
9d006c74:	0f401b17 	jal	9d006c5c <NU32_DisableInterrupts>
9d006c78:	00000000 	nop
  // turn off the module to change the settings
  U1MODEbits.ON = 0;
9d006c7c:	3c03bf80 	lui	v1,0xbf80
9d006c80:	8c646000 	lw	a0,24576(v1)
9d006c84:	7c047bc4 	ins	a0,zero,0xf,0x1
9d006c88:	ac646000 	sw	a0,24576(v1)

  // Configure UART1 RX Interrupt to off
  IEC0bits.U1RXIE = 0;
9d006c8c:	3c04bf88 	lui	a0,0xbf88
9d006c90:	8c851060 	lw	a1,4192(a0)
9d006c94:	7c05dec4 	ins	a1,zero,0x1b,0x1
9d006c98:	ac851060 	sw	a1,4192(a0)

  // turn on the UART
  U1MODEbits.ON = 1;
9d006c9c:	8c646000 	lw	a0,24576(v1)
9d006ca0:	24050001 	li	a1,1
9d006ca4:	7ca47bc4 	ins	a0,a1,0xf,0x1
9d006ca8:	ac646000 	sw	a0,24576(v1)
  //only re-enable interrupts if they were enabled prior to calling
  //this function
  if(status & 0x1) { 
9d006cac:	30420001 	andi	v0,v0,0x1
9d006cb0:	10400004 	beqz	v0,9d006cc4 <NU32_DisableUART1Interrupt+0x58>
9d006cb4:	8fbf0014 	lw	ra,20(sp)
    NU32_EnableInterrupts();
9d006cb8:	0f401b14 	jal	9d006c50 <NU32_EnableInterrupts>
9d006cbc:	00000000 	nop
  }
}
9d006cc0:	8fbf0014 	lw	ra,20(sp)
9d006cc4:	03e00008 	jr	ra
9d006cc8:	27bd0018 	addiu	sp,sp,24

9d006ccc <NU32_EnableUART1Interrupt>:

  NU32_EnableInterrupts();
}

// Enable UART1 interrupt. 
void NU32_EnableUART1Interrupt(void) {
9d006ccc:	27bdffe8 	addiu	sp,sp,-24
9d006cd0:	afbf0014 	sw	ra,20(sp)
  // disable interrupts
  unsigned int status = NU32_DisableInterrupts();
9d006cd4:	0f401b17 	jal	9d006c5c <NU32_DisableInterrupts>
9d006cd8:	00000000 	nop
  // turn off the module to change the settings
  U1MODEbits.ON = 0;
9d006cdc:	3c03bf80 	lui	v1,0xbf80
9d006ce0:	8c646000 	lw	a0,24576(v1)
9d006ce4:	7c047bc4 	ins	a0,zero,0xf,0x1
9d006ce8:	ac646000 	sw	a0,24576(v1)

  // Clear the RX interrupt Flag
  IFS0bits.U1RXIF = 0;
9d006cec:	3c04bf88 	lui	a0,0xbf88
9d006cf0:	8c851030 	lw	a1,4144(a0)
9d006cf4:	7c05dec4 	ins	a1,zero,0x1b,0x1
9d006cf8:	ac851030 	sw	a1,4144(a0)

  // Configure UART1 RX Interrupt
  // configure RX to interrupt whenever a character arrives
  U1STAbits.URXISEL = 0;
9d006cfc:	3c04bf80 	lui	a0,0xbf80
9d006d00:	8c856010 	lw	a1,24592(a0)
9d006d04:	7c053984 	ins	a1,zero,0x6,0x2
9d006d08:	ac856010 	sw	a1,24592(a0)
  IPC6bits.U1IP = 2;
9d006d0c:	3c04bf88 	lui	a0,0xbf88
9d006d10:	8c8510f0 	lw	a1,4336(a0)
9d006d14:	24060002 	li	a2,2
9d006d18:	7cc52084 	ins	a1,a2,0x2,0x3
9d006d1c:	ac8510f0 	sw	a1,4336(a0)
  IPC6bits.U1IS = 0;
9d006d20:	8c8510f0 	lw	a1,4336(a0)
9d006d24:	7c050804 	ins	a1,zero,0x0,0x2
9d006d28:	ac8510f0 	sw	a1,4336(a0)
  IEC0bits.U1RXIE = 1;
9d006d2c:	3c04bf88 	lui	a0,0xbf88
9d006d30:	8c861060 	lw	a2,4192(a0)
9d006d34:	24050001 	li	a1,1
9d006d38:	7ca6dec4 	ins	a2,a1,0x1b,0x1
9d006d3c:	ac861060 	sw	a2,4192(a0)
  
  // turn on the UART
  U1MODEbits.ON = 1;
9d006d40:	8c646000 	lw	a0,24576(v1)
9d006d44:	7ca47bc4 	ins	a0,a1,0xf,0x1
9d006d48:	ac646000 	sw	a0,24576(v1)
  
  //only re-enable interrupts if they were enabled prior to calling
  //this function
  if(status & 0x1) { 
9d006d4c:	30420001 	andi	v0,v0,0x1
9d006d50:	10400004 	beqz	v0,9d006d64 <NU32_EnableUART1Interrupt+0x98>
9d006d54:	8fbf0014 	lw	ra,20(sp)
    NU32_EnableInterrupts();
9d006d58:	0f401b14 	jal	9d006c50 <NU32_EnableInterrupts>
9d006d5c:	00000000 	nop
  }
}
9d006d60:	8fbf0014 	lw	ra,20(sp)
9d006d64:	03e00008 	jr	ra
9d006d68:	27bd0018 	addiu	sp,sp,24

9d006d6c <NU32_EnableCache>:
  // to indicate that kseg0 is cacheable (0x3) or uncacheable (0x2)
  // see Chapter 2 "CPU for Devices with M4K Core" of the PIC32 reference manual
  // most of the other bits have prescribed values
  // microchip does not provide a _CP0_SET_CONFIG macro, so we directly use
  // the compiler built-in command _mtc0
  __builtin_mtc0(_CP0_CONFIG, _CP0_CONFIG_SELECT, 0xa4210583);
9d006d6c:	3c02a421 	lui	v0,0xa421
9d006d70:	24420583 	addiu	v0,v0,1411
9d006d74:	40828000 	mtc0	v0,c0_config
9d006d78:	000000c0 	ehb
}
9d006d7c:	03e00008 	jr	ra
9d006d80:	00000000 	nop

9d006d84 <NU32_Startup>:

// Perform startup routines:
//  Make NU32_LED1 and NU32_LED2 pins outputs (NU32USER is by default an input)
//  Initialize the serial port - UART1 (no interrupt) 
//  Enable interrupts
void NU32_Startup() {
9d006d84:	27bdffe8 	addiu	sp,sp,-24
9d006d88:	afbf0014 	sw	ra,20(sp)
  // disable interrupts
  NU32_DisableInterrupts();
9d006d8c:	0f401b17 	jal	9d006c5c <NU32_DisableInterrupts>
9d006d90:	00000000 	nop

  // enable the cache
  NU32_EnableCache();
9d006d94:	0f401b5b 	jal	9d006d6c <NU32_EnableCache>
9d006d98:	00000000 	nop

  // set the prefectch cache wait state to 2, as per the
  // electrical characteristics data sheet
  CHECONbits.PFMWS = 0x2;   
9d006d9c:	3c02bf88 	lui	v0,0xbf88
9d006da0:	8c434000 	lw	v1,16384(v0)
9d006da4:	24050002 	li	a1,2
9d006da8:	7ca31004 	ins	v1,a1,0x0,0x3
9d006dac:	ac434000 	sw	v1,16384(v0)

  //enable prefetch for cacheable and noncacheable memory
  CHECONbits.PREFEN = 0x3; 
9d006db0:	8c434000 	lw	v1,16384(v0)
9d006db4:	24040003 	li	a0,3
9d006db8:	7c832904 	ins	v1,a0,0x4,0x2
9d006dbc:	ac434000 	sw	v1,16384(v0)

  // 0 data RAM access wait states
  BMXCONbits.BMXWSDRM = 0x0;
9d006dc0:	3c02bf88 	lui	v0,0xbf88
9d006dc4:	8c432000 	lw	v1,8192(v0)
9d006dc8:	7c033184 	ins	v1,zero,0x6,0x1
9d006dcc:	ac432000 	sw	v1,8192(v0)
  
  // enable multi vector interrupts
  INTCONbits.MVEC = 0x1;
9d006dd0:	3c02bf88 	lui	v0,0xbf88
9d006dd4:	8c441000 	lw	a0,4096(v0)
9d006dd8:	24030001 	li	v1,1
9d006ddc:	7c646304 	ins	a0,v1,0xc,0x1
9d006de0:	ac441000 	sw	a0,4096(v0)

  // disable JTAG to get A4 and A5 back
  DDPCONbits.JTAGEN = 0;
9d006de4:	3c02bf81 	lui	v0,0xbf81
9d006de8:	8c44f200 	lw	a0,-3584(v0)
9d006dec:	7c0418c4 	ins	a0,zero,0x3,0x1
9d006df0:	ac44f200 	sw	a0,-3584(v0)

  TRISACLR = 0x0030; // Make A5 and A4 outputs (LED2 and LED1)
9d006df4:	24040030 	li	a0,48
9d006df8:	3c02bf88 	lui	v0,0xbf88
9d006dfc:	ac446004 	sw	a0,24580(v0)
  NU32_LED1 = 1;      // LED1 is off
9d006e00:	3c02bf88 	lui	v0,0xbf88
9d006e04:	8c446020 	lw	a0,24608(v0)
9d006e08:	7c642104 	ins	a0,v1,0x4,0x1
9d006e0c:	ac446020 	sw	a0,24608(v0)
  NU32_LED2 = 0;      // LED2 is on
9d006e10:	8c446020 	lw	a0,24608(v0)
9d006e14:	7c042944 	ins	a0,zero,0x5,0x1
9d006e18:	ac446020 	sw	a0,24608(v0)

  // turn on UART1 without an interrupt
  U1MODEbits.BRGH = 0; // set baud to NU32_DESIRED_BAUD
9d006e1c:	3c02bf80 	lui	v0,0xbf80
9d006e20:	8c446000 	lw	a0,24576(v0)
9d006e24:	7c0418c4 	ins	a0,zero,0x3,0x1
9d006e28:	ac446000 	sw	a0,24576(v0)
  U1BRG = ((NU32_SYS_FREQ / NU32_DESIRED_BAUD) / 16) - 1;
9d006e2c:	24060014 	li	a2,20
9d006e30:	3c04bf80 	lui	a0,0xbf80
9d006e34:	ac866040 	sw	a2,24640(a0)

  // 8 bit, no parity bit, and 1 stop bit (8N1 setup)
  U1MODEbits.PDSEL = 0;
9d006e38:	8c446000 	lw	a0,24576(v0)
9d006e3c:	7c041044 	ins	a0,zero,0x1,0x2
9d006e40:	ac446000 	sw	a0,24576(v0)
  U1MODEbits.STSEL = 0;
9d006e44:	8c446000 	lw	a0,24576(v0)
9d006e48:	7c040004 	ins	a0,zero,0x0,0x1
9d006e4c:	ac446000 	sw	a0,24576(v0)

  // configure TX & RX pins as output & input pins
  U1STAbits.UTXEN = 1;
9d006e50:	3c04bf80 	lui	a0,0xbf80
9d006e54:	8c866010 	lw	a2,24592(a0)
9d006e58:	7c665284 	ins	a2,v1,0xa,0x1
9d006e5c:	ac866010 	sw	a2,24592(a0)
  U1STAbits.URXEN = 1;
9d006e60:	8c866010 	lw	a2,24592(a0)
9d006e64:	7c666304 	ins	a2,v1,0xc,0x1
9d006e68:	ac866010 	sw	a2,24592(a0)
  // configure using RTS and CTS
  U1MODEbits.UEN = 2;
9d006e6c:	8c446000 	lw	a0,24576(v0)
9d006e70:	7ca44a04 	ins	a0,a1,0x8,0x2
9d006e74:	ac446000 	sw	a0,24576(v0)

  // enable the uart
  U1MODEbits.ON = 1;
9d006e78:	8c446000 	lw	a0,24576(v0)
9d006e7c:	7c647bc4 	ins	a0,v1,0xf,0x1
9d006e80:	ac446000 	sw	a0,24576(v0)

  NU32_EnableInterrupts();
9d006e84:	0f401b14 	jal	9d006c50 <NU32_EnableInterrupts>
9d006e88:	00000000 	nop
}
9d006e8c:	8fbf0014 	lw	ra,20(sp)
9d006e90:	03e00008 	jr	ra
9d006e94:	27bd0018 	addiu	sp,sp,24

9d006e98 <NU32_DisableCache>:

// Disable the cache
void NU32_DisableCache(void) {
  // Set the CP0 CONFIG register to make kseg0 uncacheable
  // (See NU32_EnableCache())
  __builtin_mtc0(_CP0_CONFIG, _CP0_CONFIG_SELECT, 0xa4210582);
9d006e98:	3c02a421 	lui	v0,0xa421
9d006e9c:	24420582 	addiu	v0,v0,1410
9d006ea0:	40828000 	mtc0	v0,c0_config
9d006ea4:	000000c0 	ehb
}
9d006ea8:	03e00008 	jr	ra
9d006eac:	00000000 	nop

Disassembly of section .text.dp32mul:

9d006eb0 <__muldf3>:
9d006eb0:	00055040 000a5542 00054ac0 00047d42     @P..BU...J..B}..
9d006ec0:	012f4825 000442c0 3c0e8000 012e4825     %H/..B.....<%H..
9d006ed0:	00076840 000d6d42 000762c0 00067d42     @h..Bm...b..B}..
9d006ee0:	018f6025 00065ac0 018e6025 00a72826     %`...Z..%`..&(..
9d006ef0:	00ae2824 254fffff 2de107fe 10200047     $(....O%...-G. .
9d006f00:	00000000                                ....

9d006f04 <Clab1>:
9d006f04:	25afffff 	addiu	t7,t5,-1
9d006f08:	2de107fe 	sltiu	at,t7,2046
9d006f0c:	1020006f 	beqz	at,9d0070cc <CspecB>
9d006f10:	00000000 	nop

9d006f14 <Clab2>:
9d006f14:	25affc02 	addiu	t7,t5,-1022
9d006f18:	014f5021 	addu	t2,t2,t7
9d006f1c:	012c0019 	multu	t1,t4
9d006f20:	00003812 	mflo	a3
9d006f24:	00007010 	mfhi	t6
9d006f28:	010b0019 	multu	t0,t3
9d006f2c:	00002012 	mflo	a0
9d006f30:	00003010 	mfhi	a2
9d006f34:	012b0019 	multu	t1,t3
9d006f38:	00005812 	mflo	t3
9d006f3c:	00006810 	mfhi	t5
9d006f40:	00cb3021 	addu	a2,a2,t3
9d006f44:	00cb782b 	sltu	t7,a2,t3
9d006f48:	00ed3821 	addu	a3,a3,t5
9d006f4c:	00ef3821 	addu	a3,a3,t7
9d006f50:	10ed0002 	beq	a3,t5,9d006f5c <L20>
9d006f54:	00000000 	nop
9d006f58:	00ed782b 	sltu	t7,a3,t5

9d006f5c <L20>:
9d006f5c:	01cf7021 	addu	t6,t6,t7
9d006f60:	010c0019 	multu	t0,t4
9d006f64:	00004012 	mflo	t0
9d006f68:	00004810 	mfhi	t1
9d006f6c:	00c83021 	addu	a2,a2,t0
9d006f70:	00c8782b 	sltu	t7,a2,t0
9d006f74:	00e93821 	addu	a3,a3,t1
9d006f78:	00ef3821 	addu	a3,a3,t7
9d006f7c:	10e90002 	beq	a3,t1,9d006f88 <L21>
9d006f80:	00000000 	nop
9d006f84:	00e9782b 	sltu	t7,a3,t1

9d006f88 <L21>:
9d006f88:	01cf7021 	addu	t6,t6,t7
9d006f8c:	00867825 	or	t7,a0,a2
9d006f90:	11e00002 	beqz	t7,9d006f9c <i13>
9d006f94:	00000000 	nop
9d006f98:	34e70001 	ori	a3,a3,0x1

9d006f9c <i13>:
9d006f9c:	000e4825 	or	t1,zero,t6
9d006fa0:	05200006 	bltz	t1,9d006fbc <i14>
9d006fa4:	00074025 	or	t0,zero,a3
9d006fa8:	0100782a 	slt	t7,t0,zero
9d006fac:	01084021 	addu	t0,t0,t0
9d006fb0:	01294821 	addu	t1,t1,t1
9d006fb4:	012f4821 	addu	t1,t1,t7
9d006fb8:	254affff 	addiu	t2,t2,-1

9d006fbc <i14>:
9d006fbc:	254fffff 	addiu	t7,t2,-1
9d006fc0:	2de107fe 	sltiu	at,t7,2046
9d006fc4:	10200068 	beqz	at,9d007168 <Coveund>
9d006fc8:	00000000 	nop
9d006fcc:	25080400 	addiu	t0,t0,1024
9d006fd0:	2d0f0400 	sltiu	t7,t0,1024
9d006fd4:	012f4821 	addu	t1,t1,t7
9d006fd8:	012f782b 	sltu	t7,t1,t7
9d006fdc:	014f5021 	addu	t2,t2,t7

9d006fe0 <Clab8>:
9d006fe0:	00087ac2 	srl	t7,t0,0xb
9d006fe4:	31ef0001 	andi	t7,t7,0x1
9d006fe8:	010f4023 	subu	t0,t0,t7
9d006fec:	000822c2 	srl	a0,t0,0xb
9d006ff0:	00097d40 	sll	t7,t1,0x15
9d006ff4:	008f2025 	or	a0,a0,t7
9d006ff8:	00097840 	sll	t7,t1,0x1
9d006ffc:	000f7b02 	srl	t7,t7,0xc
9d007000:	00af2825 	or	a1,a1,t7
9d007004:	000a7d00 	sll	t7,t2,0x14
9d007008:	00af2825 	or	a1,a1,t7

9d00700c <Cret>:
9d00700c:	00041025 	or	v0,zero,a0
9d007010:	00051825 	or	v1,zero,a1

9d007014 <C999>:
9d007014:	03e00008 	jr	ra
9d007018:	00000000 	nop

9d00701c <CspecA>:
9d00701c:	0100782a 	slt	t7,t0,zero
9d007020:	01084021 	addu	t0,t0,t0
9d007024:	01294821 	addu	t1,t1,t1
9d007028:	1540001c 	bnez	t2,9d00709c <i15>
9d00702c:	012f4821 	addu	t1,t1,t7
9d007030:	01287825 	or	t7,t1,t0
9d007034:	11e00014 	beqz	t7,9d007088 <i16>
9d007038:	00000000 	nop
9d00703c:	15200008 	bnez	t1,9d007060 <L22>
9d007040:	00000000 	nop
9d007044:	15000003 	bnez	t0,9d007054 <L23>
9d007048:	00000000 	nop
9d00704c:	1000ffad 	b	9d006f04 <Clab1>
9d007050:	240a0000 	li	t2,0

9d007054 <L23>:
9d007054:	01004825 	move	t1,t0
9d007058:	24080000 	li	t0,0
9d00705c:	254affe0 	addiu	t2,t2,-32

9d007060 <L22>:
9d007060:	712e7020 	clz	t6,t1
9d007064:	11c0ffa7 	beqz	t6,9d006f04 <Clab1>
9d007068:	00000000 	nop
9d00706c:	014e5023 	subu	t2,t2,t6
9d007070:	000e3822 	neg	a3,t6
9d007074:	00e83806 	srlv	a3,t0,a3
9d007078:	01c84004 	sllv	t0,t0,t6
9d00707c:	01c94804 	sllv	t1,t1,t6
9d007080:	1000ffa0 	b	9d006f04 <Clab1>
9d007084:	01274825 	or	t1,t1,a3

9d007088 <i16>:
9d007088:	240107ff 	li	at,2047
9d00708c:	11a10033 	beq	t5,at,9d00715c <Cnan>
9d007090:	00000000 	nop
9d007094:	1000ffdd 	b	9d00700c <Cret>
9d007098:	00000000 	nop

9d00709c <i15>:
9d00709c:	01287825 	or	t7,t1,t0
9d0070a0:	15e0002e 	bnez	t7,9d00715c <Cnan>
9d0070a4:	00000000 	nop
9d0070a8:	15a00005 	bnez	t5,9d0070c0 <i17>
9d0070ac:	00000000 	nop
9d0070b0:	000c7840 	sll	t7,t4,0x1
9d0070b4:	01eb7825 	or	t7,t7,t3
9d0070b8:	11e00028 	beqz	t7,9d00715c <Cnan>
9d0070bc:	00000000 	nop

9d0070c0 <i17>:
9d0070c0:	240107ff 	li	at,2047
9d0070c4:	15a10021 	bne	t5,at,9d00714c <Cinf>
9d0070c8:	00000000 	nop

9d0070cc <CspecB>:
9d0070cc:	0160782a 	slt	t7,t3,zero
9d0070d0:	016b5821 	addu	t3,t3,t3
9d0070d4:	018c6021 	addu	t4,t4,t4
9d0070d8:	15a00019 	bnez	t5,9d007140 <i18>
9d0070dc:	018f6021 	addu	t4,t4,t7
9d0070e0:	018b7825 	or	t7,t4,t3
9d0070e4:	11e00014 	beqz	t7,9d007138 <i19>
9d0070e8:	00000000 	nop
9d0070ec:	15800008 	bnez	t4,9d007110 <L25>
9d0070f0:	00000000 	nop
9d0070f4:	15600003 	bnez	t3,9d007104 <L26>
9d0070f8:	00000000 	nop
9d0070fc:	1000ff85 	b	9d006f14 <Clab2>
9d007100:	240d0000 	li	t5,0

9d007104 <L26>:
9d007104:	01606025 	move	t4,t3
9d007108:	240b0000 	li	t3,0
9d00710c:	25adffe0 	addiu	t5,t5,-32

9d007110 <L25>:
9d007110:	71863020 	clz	a2,t4
9d007114:	10c0ff7f 	beqz	a2,9d006f14 <Clab2>
9d007118:	00000000 	nop
9d00711c:	01a66823 	subu	t5,t5,a2
9d007120:	00067022 	neg	t6,a2
9d007124:	01cb7006 	srlv	t6,t3,t6
9d007128:	00cb5804 	sllv	t3,t3,a2
9d00712c:	00cc6004 	sllv	t4,t4,a2
9d007130:	1000ff78 	b	9d006f14 <Clab2>
9d007134:	018e6025 	or	t4,t4,t6

9d007138 <i19>:
9d007138:	1000ffb4 	b	9d00700c <Cret>
9d00713c:	24040000 	li	a0,0

9d007140 <i18>:
9d007140:	018b7825 	or	t7,t4,t3
9d007144:	15e00005 	bnez	t7,9d00715c <Cnan>
9d007148:	00000000 	nop

9d00714c <Cinf>:
9d00714c:	3c017ff0 	lui	at,0x7ff0
9d007150:	00a12825 	or	a1,a1,at
9d007154:	1000ffad 	b	9d00700c <Cret>
9d007158:	24040000 	li	a0,0

9d00715c <Cnan>:
9d00715c:	3c05fff8 	lui	a1,0xfff8
9d007160:	1000ffaa 	b	9d00700c <Cret>
9d007164:	24040000 	li	a0,0

9d007168 <Coveund>:
9d007168:	1d40fff8 	bgtz	t2,9d00714c <Cinf>
9d00716c:	00000000 	nop
9d007170:	240e0001 	li	t6,1
9d007174:	01ca7023 	subu	t6,t6,t2

9d007178 <L28>:
9d007178:	2dc10020 	sltiu	at,t6,32
9d00717c:	14200007 	bnez	at,9d00719c <L29>
9d007180:	00000000 	nop
9d007184:	21ceffe0 	addi	t6,t6,-32
9d007188:	0008302b 	sltu	a2,zero,t0
9d00718c:	1009000d 	beq	zero,t1,9d0071c4 <L30>
9d007190:	01264025 	or	t0,t1,a2
9d007194:	1000fff8 	b	9d007178 <L28>
9d007198:	34090000 	li	t1,0x0

9d00719c <L29>:
9d00719c:	11c00009 	beqz	t6,9d0071c4 <L30>
9d0071a0:	00000000 	nop
9d0071a4:	000e3822 	neg	a3,t6
9d0071a8:	00e83004 	sllv	a2,t0,a3
9d0071ac:	00e93804 	sllv	a3,t1,a3
9d0071b0:	01c84006 	srlv	t0,t0,t6
9d0071b4:	01c94806 	srlv	t1,t1,t6
9d0071b8:	10c00002 	beqz	a2,9d0071c4 <L30>
9d0071bc:	00e84025 	or	t0,a3,t0
9d0071c0:	35080002 	ori	t0,t0,0x2

9d0071c4 <L30>:
9d0071c4:	25080400 	addiu	t0,t0,1024
9d0071c8:	2d0f0400 	sltiu	t7,t0,1024
9d0071cc:	012f4821 	addu	t1,t1,t7
9d0071d0:	1000ff83 	b	9d006fe0 <Clab8>
9d0071d4:	000957c2 	srl	t2,t1,0x1f
9d0071d8:	00000000 	nop

Disassembly of section .text.scale:

9d0071dc <scale>:
9d0071dc:	27bdffd8 	addiu	sp,sp,-40
9d0071e0:	afb00014 	sw	s0,20(sp)
9d0071e4:	afbf0024 	sw	ra,36(sp)
9d0071e8:	afb30020 	sw	s3,32(sp)
9d0071ec:	afb2001c 	sw	s2,28(sp)
9d0071f0:	afb10018 	sw	s1,24(sp)
9d0071f4:	04800044 	bltz	a0,9d007308 <scale+0x12c>
9d0071f8:	00808021 	move	s0,a0
9d0071fc:	2882006e 	slti	v0,a0,110
9d007200:	1040000e 	beqz	v0,9d00723c <scale+0x60>
9d007204:	2882000b 	slti	v0,a0,11
9d007208:	10400079 	beqz	v0,9d0073f0 <scale+0x214>
9d00720c:	3c029d01 	lui	v0,0x9d01
9d007210:	244298bc 	addiu	v0,v0,-26436
9d007214:	00048080 	sll	s0,a0,0x2
9d007218:	02028021 	addu	s0,s0,v0
9d00721c:	8e020000 	lw	v0,0(s0)
9d007220:	8fbf0024 	lw	ra,36(sp)
9d007224:	8fb30020 	lw	s3,32(sp)
9d007228:	8fb2001c 	lw	s2,28(sp)
9d00722c:	8fb10018 	lw	s1,24(sp)
9d007230:	8fb00014 	lw	s0,20(sp)
9d007234:	03e00008 	jr	ra
9d007238:	27bd0028 	addiu	sp,sp,40
9d00723c:	3c0251eb 	lui	v0,0x51eb
9d007240:	3442851f 	ori	v0,v0,0x851f
9d007244:	00820018 	mult	a0,v0
9d007248:	000497c3 	sra	s2,a0,0x1f
9d00724c:	00002810 	mfhi	a1
9d007250:	3c136666 	lui	s3,0x6666
9d007254:	00051943 	sra	v1,a1,0x5
9d007258:	00721823 	subu	v1,v1,s2
9d00725c:	00031080 	sll	v0,v1,0x2
9d007260:	00031900 	sll	v1,v1,0x4
9d007264:	00431021 	addu	v0,v0,v1
9d007268:	00021880 	sll	v1,v0,0x2
9d00726c:	00431021 	addu	v0,v0,v1
9d007270:	00821023 	subu	v0,a0,v0
9d007274:	7c021420 	seb	v0,v0
9d007278:	26736667 	addiu	s3,s3,26215
9d00727c:	00530018 	mult	v0,s3
9d007280:	000217c3 	sra	v0,v0,0x1f
9d007284:	00001810 	mfhi	v1
9d007288:	3c119d01 	lui	s1,0x9d01
9d00728c:	00031883 	sra	v1,v1,0x2
9d007290:	00621023 	subu	v0,v1,v0
9d007294:	7c021420 	seb	v0,v0
9d007298:	24420009 	addiu	v0,v0,9
9d00729c:	263198bc 	addiu	s1,s1,-26436
9d0072a0:	00021080 	sll	v0,v0,0x2
9d0072a4:	00511021 	addu	v0,v0,s1
9d0072a8:	8e24004c 	lw	a0,76(s1)
9d0072ac:	0f401fb6 	jal	9d007ed8 <__mulsf3>
9d0072b0:	8c450000 	lw	a1,0(v0)
9d0072b4:	02130018 	mult	s0,s3
9d0072b8:	00402021 	move	a0,v0
9d0072bc:	00009810 	mfhi	s3
9d0072c0:	00139883 	sra	s3,s3,0x2
9d0072c4:	02729023 	subu	s2,s3,s2
9d0072c8:	00121040 	sll	v0,s2,0x1
9d0072cc:	001290c0 	sll	s2,s2,0x3
9d0072d0:	00529021 	addu	s2,v0,s2
9d0072d4:	02128023 	subu	s0,s0,s2
9d0072d8:	7c108420 	seb	s0,s0
9d0072dc:	00108080 	sll	s0,s0,0x2
9d0072e0:	02118821 	addu	s1,s0,s1
9d0072e4:	0f401fb6 	jal	9d007ed8 <__mulsf3>
9d0072e8:	8e250000 	lw	a1,0(s1)
9d0072ec:	8fbf0024 	lw	ra,36(sp)
9d0072f0:	8fb30020 	lw	s3,32(sp)
9d0072f4:	8fb2001c 	lw	s2,28(sp)
9d0072f8:	8fb10018 	lw	s1,24(sp)
9d0072fc:	8fb00014 	lw	s0,20(sp)
9d007300:	03e00008 	jr	ra
9d007304:	27bd0028 	addiu	sp,sp,40
9d007308:	00048023 	negu	s0,a0
9d00730c:	7c108420 	seb	s0,s0
9d007310:	2a02006e 	slti	v0,s0,110
9d007314:	1040001d 	beqz	v0,9d00738c <scale+0x1b0>
9d007318:	3c0251eb 	lui	v0,0x51eb
9d00731c:	2a02000b 	slti	v0,s0,11
9d007320:	54400051 	bnezl	v0,9d007468 <scale+0x28c>
9d007324:	3c029d01 	lui	v0,0x9d01
9d007328:	3c026666 	lui	v0,0x6666
9d00732c:	24426667 	addiu	v0,v0,26215
9d007330:	02020018 	mult	s0,v0
9d007334:	00101fc3 	sra	v1,s0,0x1f
9d007338:	00001010 	mfhi	v0
9d00733c:	00021083 	sra	v0,v0,0x2
9d007340:	00431023 	subu	v0,v0,v1
9d007344:	00022040 	sll	a0,v0,0x1
9d007348:	000218c0 	sll	v1,v0,0x3
9d00734c:	00831821 	addu	v1,a0,v1
9d007350:	02038023 	subu	s0,s0,v1
9d007354:	7c022420 	seb	a0,v0
9d007358:	24840009 	addiu	a0,a0,9
9d00735c:	7c101420 	seb	v0,s0
9d007360:	3c039d01 	lui	v1,0x9d01
9d007364:	246398f0 	addiu	v1,v1,-26384
9d007368:	00042080 	sll	a0,a0,0x2
9d00736c:	00021080 	sll	v0,v0,0x2
9d007370:	00832021 	addu	a0,a0,v1
9d007374:	00431021 	addu	v0,v0,v1
9d007378:	8c840000 	lw	a0,0(a0)
9d00737c:	0f401fb6 	jal	9d007ed8 <__mulsf3>
9d007380:	8c450000 	lw	a1,0(v0)
9d007384:	0b401c89 	j	9d007224 <scale+0x48>
9d007388:	8fbf0024 	lw	ra,36(sp)
9d00738c:	3442851f 	ori	v0,v0,0x851f
9d007390:	02020018 	mult	s0,v0
9d007394:	001097c3 	sra	s2,s0,0x1f
9d007398:	00002810 	mfhi	a1
9d00739c:	3c136666 	lui	s3,0x6666
9d0073a0:	00051943 	sra	v1,a1,0x5
9d0073a4:	00721823 	subu	v1,v1,s2
9d0073a8:	00031080 	sll	v0,v1,0x2
9d0073ac:	00031900 	sll	v1,v1,0x4
9d0073b0:	00431021 	addu	v0,v0,v1
9d0073b4:	00021880 	sll	v1,v0,0x2
9d0073b8:	00431021 	addu	v0,v0,v1
9d0073bc:	02021023 	subu	v0,s0,v0
9d0073c0:	7c021420 	seb	v0,v0
9d0073c4:	26736667 	addiu	s3,s3,26215
9d0073c8:	00530018 	mult	v0,s3
9d0073cc:	000217c3 	sra	v0,v0,0x1f
9d0073d0:	00001810 	mfhi	v1
9d0073d4:	3c119d01 	lui	s1,0x9d01
9d0073d8:	00031883 	sra	v1,v1,0x2
9d0073dc:	00621023 	subu	v0,v1,v0
9d0073e0:	7c021420 	seb	v0,v0
9d0073e4:	24420009 	addiu	v0,v0,9
9d0073e8:	0b401ca8 	j	9d0072a0 <scale+0xc4>
9d0073ec:	263198f0 	addiu	s1,s1,-26384
9d0073f0:	3c026666 	lui	v0,0x6666
9d0073f4:	24426667 	addiu	v0,v0,26215
9d0073f8:	00820018 	mult	a0,v0
9d0073fc:	00041fc3 	sra	v1,a0,0x1f
9d007400:	00001010 	mfhi	v0
9d007404:	00021083 	sra	v0,v0,0x2
9d007408:	00431023 	subu	v0,v0,v1
9d00740c:	00022040 	sll	a0,v0,0x1
9d007410:	000218c0 	sll	v1,v0,0x3
9d007414:	00831821 	addu	v1,a0,v1
9d007418:	02038023 	subu	s0,s0,v1
9d00741c:	7c021420 	seb	v0,v0
9d007420:	24420009 	addiu	v0,v0,9
9d007424:	7c108420 	seb	s0,s0
9d007428:	3c039d01 	lui	v1,0x9d01
9d00742c:	246398bc 	addiu	v1,v1,-26436
9d007430:	00021080 	sll	v0,v0,0x2
9d007434:	00108080 	sll	s0,s0,0x2
9d007438:	02038021 	addu	s0,s0,v1
9d00743c:	00431021 	addu	v0,v0,v1
9d007440:	8e050000 	lw	a1,0(s0)
9d007444:	0f401fb6 	jal	9d007ed8 <__mulsf3>
9d007448:	8c440000 	lw	a0,0(v0)
9d00744c:	8fbf0024 	lw	ra,36(sp)
9d007450:	8fb30020 	lw	s3,32(sp)
9d007454:	8fb2001c 	lw	s2,28(sp)
9d007458:	8fb10018 	lw	s1,24(sp)
9d00745c:	8fb00014 	lw	s0,20(sp)
9d007460:	03e00008 	jr	ra
9d007464:	27bd0028 	addiu	sp,sp,40
9d007468:	244298f0 	addiu	v0,v0,-26384
9d00746c:	00108080 	sll	s0,s0,0x2
9d007470:	02028021 	addu	s0,s0,v0
9d007474:	0b401c88 	j	9d007220 <scale+0x44>
9d007478:	8e020000 	lw	v0,0(s0)

Disassembly of section .text.fpsubadd:

9d00747c <__subsf3>:
9d00747c:	3c018000 00a12826                       ...<&(..

9d007484 <__addsf3>:
9d007484:	00044dc2 312900ff 00055dc2 316b00ff     .M....)1.]....k1
9d007494:	3c078000 00044200 01074025 00055200     ...<.B..%@...R..
9d0074a4:	01475025 252dffff 2da100fe 10200061     %PG...-%...-a. .
9d0074b4:	00000000                                ....

9d0074b8 <Blab1>:
9d0074b8:	256dffff 	addiu	t5,t3,-1
9d0074bc:	2da100fe 	sltiu	at,t5,254
9d0074c0:	10200077 	beqz	at,9d0076a0 <BspecB>
9d0074c4:	00000000 	nop

9d0074c8 <Blab2>:
9d0074c8:	012b6023 	subu	t4,t1,t3
9d0074cc:	0580000d 	bltz	t4,9d007504 <i1>
9d0074d0:	00000000 	nop
9d0074d4:	29810020 	slti	at,t4,32
9d0074d8:	14200003 	bnez	at,9d0074e8 <i2>
9d0074dc:	00000000 	nop
9d0074e0:	10000015 	b	9d007538 <e1>
9d0074e4:	240a0002 	li	t2,2

9d0074e8 <i2>:
9d0074e8:	000a3025 	or	a2,zero,t2
9d0074ec:	018a5006 	srlv	t2,t2,t4
9d0074f0:	018a6804 	sllv	t5,t2,t4
9d0074f4:	11a60010 	beq	t5,a2,9d007538 <e1>
9d0074f8:	00000000 	nop
9d0074fc:	1000000e 	b	9d007538 <e1>
9d007500:	354a0002 	ori	t2,t2,0x2

9d007504 <i1>:
9d007504:	000b4825 	or	t1,zero,t3
9d007508:	000c6023 	negu	t4,t4
9d00750c:	29810020 	slti	at,t4,32
9d007510:	14200003 	bnez	at,9d007520 <i4>
9d007514:	00000000 	nop
9d007518:	10000007 	b	9d007538 <e1>
9d00751c:	24080002 	li	t0,2

9d007520 <i4>:
9d007520:	00083025 	or	a2,zero,t0
9d007524:	01884006 	srlv	t0,t0,t4
9d007528:	01886804 	sllv	t5,t0,t4
9d00752c:	11a60002 	beq	t5,a2,9d007538 <e1>
9d007530:	00000000 	nop
9d007534:	35080002 	ori	t0,t0,0x2

9d007538 <e1>:
9d007538:	00876024 	and	t4,a0,a3
9d00753c:	01856826 	xor	t5,t4,a1
9d007540:	05a00010 	bltz	t5,9d007584 <Bsub1>
9d007544:	00000000 	nop
9d007548:	010a4021 	addu	t0,t0,t2
9d00754c:	010a682b 	sltu	t5,t0,t2
9d007550:	11a00017 	beqz	t5,9d0075b0 <Bres>
9d007554:	00000000 	nop
9d007558:	310d0001 	andi	t5,t0,0x1
9d00755c:	11a00002 	beqz	t5,9d007568 <i7>
9d007560:	00000000 	nop
9d007564:	35080002 	ori	t0,t0,0x2

9d007568 <i7>:
9d007568:	00084042 	srl	t0,t0,0x1
9d00756c:	25290001 	addiu	t1,t1,1
9d007570:	240100ff 	li	at,255
9d007574:	1521000e 	bne	t1,at,9d0075b0 <Bres>
9d007578:	00000000 	nop
9d00757c:	1000000c 	b	9d0075b0 <Bres>
9d007580:	24080000 	li	t0,0

9d007584 <Bsub1>:
9d007584:	010a682b 	sltu	t5,t0,t2
9d007588:	11a00004 	beqz	t5,9d00759c <i9>
9d00758c:	010a4023 	subu	t0,t0,t2
9d007590:	00084023 	negu	t0,t0
9d007594:	10000003 	b	9d0075a4 <e9>
9d007598:	01876026 	xor	t4,t4,a3

9d00759c <i9>:
9d00759c:	11000050 	beqz	t0,9d0076e0 <Bzer>
9d0075a0:	00000000 	nop

9d0075a4 <e9>:
9d0075a4:	71063020 	clz	a2,t0
9d0075a8:	01264823 	subu	t1,t1,a2
9d0075ac:	00c84004 	sllv	t0,t0,a2

9d0075b0 <Bres>:
9d0075b0:	1920000e 	blez	t1,9d0075ec <Bund>
9d0075b4:	00000000 	nop

9d0075b8 <Blab12>:
9d0075b8:	25080080 	addiu	t0,t0,128
9d0075bc:	2d0d0080 	sltiu	t5,t0,128
9d0075c0:	012d4821 	addu	t1,t1,t5
9d0075c4:	00086a02 	srl	t5,t0,0x8
9d0075c8:	31ad0001 	andi	t5,t5,0x1
9d0075cc:	010d4023 	subu	t0,t0,t5
9d0075d0:	00084040 	sll	t0,t0,0x1
9d0075d4:	00084242 	srl	t0,t0,0x9
9d0075d8:	00096dc0 	sll	t5,t1,0x17
9d0075dc:	010d4025 	or	t0,t0,t5
9d0075e0:	010c1025 	or	v0,t0,t4

9d0075e4 <B999>:
9d0075e4:	03e00008 	jr	ra
9d0075e8:	00000000 	nop

9d0075ec <Bund>:
9d0075ec:	24060001 	li	a2,1
9d0075f0:	00c93023 	subu	a2,a2,t1
9d0075f4:	2cc10020 	sltiu	at,a2,32
9d0075f8:	10200039 	beqz	at,9d0076e0 <Bzer>
9d0075fc:	00000000 	nop
9d007600:	3c018000 	lui	at,0x8000
9d007604:	01014025 	or	t0,t0,at
9d007608:	240d0020 	li	t5,32
9d00760c:	01a66823 	subu	t5,t5,a2
9d007610:	01a84804 	sllv	t1,t0,t5
9d007614:	11200002 	beqz	t1,9d007620 <i10>
9d007618:	00c84006 	srlv	t0,t0,a2
9d00761c:	35080001 	ori	t0,t0,0x1

9d007620 <i10>:
9d007620:	24090000 	li	t1,0
9d007624:	250d0080 	addiu	t5,t0,128
9d007628:	05a1ffe3 	bgez	t5,9d0075b8 <Blab12>
9d00762c:	00000000 	nop
9d007630:	1000ffe1 	b	9d0075b8 <Blab12>
9d007634:	24090001 	li	t1,1

9d007638 <BspecA>:
9d007638:	1520000e 	bnez	t1,9d007674 <i12>
9d00763c:	00000000 	nop
9d007640:	01084021 	addu	t0,t0,t0
9d007644:	11000005 	beqz	t0,9d00765c <i13>
9d007648:	00000000 	nop
9d00764c:	710c6020 	clz	t4,t0
9d007650:	012c4823 	subu	t1,t1,t4
9d007654:	1000ff98 	b	9d0074b8 <Blab1>
9d007658:	01884004 	sllv	t0,t0,t4

9d00765c <i13>:
9d00765c:	240100ff 	li	at,255
9d007660:	1161000f 	beq	t3,at,9d0076a0 <BspecB>
9d007664:	00000000 	nop
9d007668:	3c018000 	lui	at,0x8000
9d00766c:	14a10018 	bne	a1,at,9d0076d0 <BretB>
9d007670:	00000000 	nop

9d007674 <i12>:
9d007674:	01086821 	addu	t5,t0,t0
9d007678:	15a0001b 	bnez	t5,9d0076e8 <Bnan>
9d00767c:	00000000 	nop
9d007680:	240100ff 	li	at,255
9d007684:	15610014 	bne	t3,at,9d0076d8 <BretA>
9d007688:	00000000 	nop
9d00768c:	00856826 	xor	t5,a0,a1
9d007690:	05a00015 	bltz	t5,9d0076e8 <Bnan>
9d007694:	00000000 	nop
9d007698:	1000000d 	b	9d0076d0 <BretB>
9d00769c:	00000000 	nop

9d0076a0 <BspecB>:
9d0076a0:	15600008 	bnez	t3,9d0076c4 <i15>
9d0076a4:	00000000 	nop
9d0076a8:	014a5021 	addu	t2,t2,t2
9d0076ac:	1140000a 	beqz	t2,9d0076d8 <BretA>
9d0076b0:	00000000 	nop
9d0076b4:	714c6020 	clz	t4,t2
9d0076b8:	016c5823 	subu	t3,t3,t4
9d0076bc:	1000ff82 	b	9d0074c8 <Blab2>
9d0076c0:	018a5004 	sllv	t2,t2,t4

9d0076c4 <i15>:
9d0076c4:	014a6821 	addu	t5,t2,t2
9d0076c8:	15a00007 	bnez	t5,9d0076e8 <Bnan>
9d0076cc:	00000000 	nop

9d0076d0 <BretB>:
9d0076d0:	1000ffc4 	b	9d0075e4 <B999>
9d0076d4:	00051025 	or	v0,zero,a1

9d0076d8 <BretA>:
9d0076d8:	1000ffc2 	b	9d0075e4 <B999>
9d0076dc:	00041025 	or	v0,zero,a0

9d0076e0 <Bzer>:
9d0076e0:	1000ffc0 	b	9d0075e4 <B999>
9d0076e4:	24020000 	li	v0,0

9d0076e8 <Bnan>:
9d0076e8:	1000ffbe 	b	9d0075e4 <B999>
9d0076ec:	3c02ffc0 	lui	v0,0xffc0
9d0076f0:	00000000 	nop

Disassembly of section .text.fp32div:

9d0076f4 <__divsf3>:
9d0076f4:	3c0b8000 000445c2 310800ff 000555c2     ...<.E.....1.U..
9d007704:	314a00ff 00043a00 00eb3825 00054a00     ..J1.:..%8...J..
9d007714:	012b4825 00857026 016e5824 250effff     %H+.&p..$Xn....%
9d007724:	2dc100fe 1020003f 00000000              ...-?. .....

9d007730 <Dlab1>:
9d007730:	254effff 	addiu	t6,t2,-1
9d007734:	2dc100fe 	sltiu	at,t6,254
9d007738:	10200053 	beqz	at,9d007888 <DspecB>
9d00773c:	00000000 	nop

9d007740 <Dlab2>:
9d007740:	00e9082b 	sltu	at,a3,t1
9d007744:	14200003 	bnez	at,9d007754 <i27>
9d007748:	00000000 	nop
9d00774c:	00073842 	srl	a3,a3,0x1
9d007750:	25080001 	addiu	t0,t0,1

9d007754 <i27>:
9d007754:	00096382 	srl	t4,t1,0xe
9d007758:	018001f4 	teq	t4,zero,0x7
9d00775c:	00ec001b 	divu	zero,a3,t4
9d007760:	00002012 	mflo	a0
9d007764:	00003010 	mfhi	a2
9d007768:	312d3fff 	andi	t5,t1,0x3fff
9d00776c:	01a40019 	multu	t5,a0
9d007770:	00002812 	mflo	a1
9d007774:	00063380 	sll	a2,a2,0xe
9d007778:	00c5702b 	sltu	t6,a2,a1
9d00777c:	11c00004 	beqz	t6,9d007790 <i28>
9d007780:	00c53023 	subu	a2,a2,a1
9d007784:	2484ffff 	addiu	a0,a0,-1
9d007788:	00c93021 	addu	a2,a2,t1
9d00778c:	00c9702b 	sltu	t6,a2,t1

9d007790 <i28>:
9d007790:	018001f4 	teq	t4,zero,0x7
9d007794:	00cc001b 	divu	zero,a2,t4
9d007798:	00003812 	mflo	a3
9d00779c:	00003010 	mfhi	a2
9d0077a0:	01a70019 	multu	t5,a3
9d0077a4:	00002812 	mflo	a1
9d0077a8:	00063380 	sll	a2,a2,0xe
9d0077ac:	00c5702b 	sltu	t6,a2,a1
9d0077b0:	11c00004 	beqz	t6,9d0077c4 <i29>
9d0077b4:	00c53023 	subu	a2,a2,a1
9d0077b8:	24e7ffff 	addiu	a3,a3,-1
9d0077bc:	00c93021 	addu	a2,a2,t1
9d0077c0:	00c9702b 	sltu	t6,a2,t1

9d0077c4 <i29>:
9d0077c4:	00047380 	sll	t6,a0,0xe
9d0077c8:	00ee3821 	addu	a3,a3,t6
9d0077cc:	10c00002 	beqz	a2,9d0077d8 <i30>
9d0077d0:	00073900 	sll	a3,a3,0x4
9d0077d4:	34e70001 	ori	a3,a3,0x1

9d0077d8 <i30>:
9d0077d8:	240e007e 	li	t6,126
9d0077dc:	01ca7023 	subu	t6,t6,t2
9d0077e0:	010e4021 	addu	t0,t0,t6
9d0077e4:	250effff 	addiu	t6,t0,-1
9d0077e8:	2dc100fe 	sltiu	at,t6,254
9d0077ec:	10200034 	beqz	at,9d0078c0 <Doveund>
9d0077f0:	00000000 	nop

9d0077f4 <Dlab8>:
9d0077f4:	24e70080 	addiu	a3,a3,128
9d0077f8:	2cee0080 	sltiu	t6,a3,128
9d0077fc:	010e4021 	addu	t0,t0,t6
9d007800:	00077202 	srl	t6,a3,0x8
9d007804:	31ce0001 	andi	t6,t6,0x1
9d007808:	00ee3823 	subu	a3,a3,t6
9d00780c:	00073840 	sll	a3,a3,0x1
9d007810:	00073a42 	srl	a3,a3,0x9
9d007814:	000875c0 	sll	t6,t0,0x17
9d007818:	00ee3825 	or	a3,a3,t6
9d00781c:	00eb1025 	or	v0,a3,t3

9d007820 <D999>:
9d007820:	03e00008 	jr	ra
9d007824:	00000000 	nop

9d007828 <DspecA>:
9d007828:	15000008 	bnez	t0,9d00784c <i31>
9d00782c:	00000000 	nop
9d007830:	00e73821 	addu	a3,a3,a3
9d007834:	10e00005 	beqz	a3,9d00784c <i31>
9d007838:	00000000 	nop
9d00783c:	70ec6020 	clz	t4,a3
9d007840:	010c4023 	subu	t0,t0,t4
9d007844:	1000ffba 	b	9d007730 <Dlab1>
9d007848:	01873804 	sllv	a3,a3,t4

9d00784c <i31>:
9d00784c:	15480004 	bne	t2,t0,9d007860 <i33>
9d007850:	00000000 	nop
9d007854:	01297021 	addu	t6,t1,t1
9d007858:	11c0002f 	beqz	t6,9d007918 <Dnan>
9d00785c:	00000000 	nop

9d007860 <i33>:
9d007860:	240100ff 	li	at,255
9d007864:	11410008 	beq	t2,at,9d007888 <DspecB>
9d007868:	00000000 	nop
9d00786c:	11000012 	beqz	t0,9d0078b8 <Dzer>
9d007870:	00000000 	nop
9d007874:	00e77021 	addu	t6,a3,a3
9d007878:	15c00027 	bnez	t6,9d007918 <Dnan>
9d00787c:	00000000 	nop
9d007880:	10000022 	b	9d00790c <Dinf>
9d007884:	00000000 	nop

9d007888 <DspecB>:
9d007888:	15400008 	bnez	t2,9d0078ac <i34>
9d00788c:	00000000 	nop
9d007890:	01294821 	addu	t1,t1,t1
9d007894:	1120001d 	beqz	t1,9d00790c <Dinf>
9d007898:	00000000 	nop
9d00789c:	712c6020 	clz	t4,t1
9d0078a0:	014c5023 	subu	t2,t2,t4
9d0078a4:	1000ffa6 	b	9d007740 <Dlab2>
9d0078a8:	01894804 	sllv	t1,t1,t4

9d0078ac <i34>:
9d0078ac:	01297021 	addu	t6,t1,t1
9d0078b0:	15c00019 	bnez	t6,9d007918 <Dnan>
9d0078b4:	00000000 	nop

9d0078b8 <Dzer>:
9d0078b8:	1000ffd9 	b	9d007820 <D999>
9d0078bc:	000b1025 	or	v0,zero,t3

9d0078c0 <Doveund>:
9d0078c0:	1d000012 	bgtz	t0,9d00790c <Dinf>
9d0078c4:	00000000 	nop
9d0078c8:	240c0001 	li	t4,1
9d0078cc:	01886023 	subu	t4,t4,t0
9d0078d0:	2d810020 	sltiu	at,t4,32
9d0078d4:	1020fff8 	beqz	at,9d0078b8 <Dzer>
9d0078d8:	00000000 	nop
9d0078dc:	240e0020 	li	t6,32
9d0078e0:	01cc7023 	subu	t6,t6,t4
9d0078e4:	01c74004 	sllv	t0,a3,t6
9d0078e8:	11000002 	beqz	t0,9d0078f4 <i37>
9d0078ec:	01873806 	srlv	a3,a3,t4
9d0078f0:	34e70002 	ori	a3,a3,0x2

9d0078f4 <i37>:
9d0078f4:	24080000 	li	t0,0
9d0078f8:	24ee0080 	addiu	t6,a3,128
9d0078fc:	05c1ffbd 	bgez	t6,9d0077f4 <Dlab8>
9d007900:	00000000 	nop
9d007904:	1000ffbb 	b	9d0077f4 <Dlab8>
9d007908:	24080001 	li	t0,1

9d00790c <Dinf>:
9d00790c:	3c017f80 	lui	at,0x7f80
9d007910:	1000ffc3 	b	9d007820 <D999>
9d007914:	01611025 	or	v0,t3,at

9d007918 <Dnan>:
9d007918:	1000ffc1 	b	9d007820 <D999>
9d00791c:	3c02ffc0 	lui	v0,0xffc0
9d007920:	00000000 	nop

Disassembly of section .text.__floatdisf:

9d007924 <__floatdisf>:
9d007924:	00851025 	or	v0,a0,a1
9d007928:	10400084 	beqz	v0,9d007b3c <__floatdisf+0x218>
9d00792c:	00001021 	move	v0,zero
9d007930:	24020001 	li	v0,1
9d007934:	10820046 	beq	a0,v0,9d007a50 <__floatdisf+0x12c>
9d007938:	000547c2 	srl	t0,a1,0x1f
9d00793c:	2402ffff 	li	v0,-1
9d007940:	10820065 	beq	a0,v0,9d007ad8 <__floatdisf+0x1b4>
9d007944:	2402000a 	li	v0,10
9d007948:	10820067 	beq	a0,v0,9d007ae8 <__floatdisf+0x1c4>
9d00794c:	2402fff6 	li	v0,-10
9d007950:	1082005a 	beq	a0,v0,9d007abc <__floatdisf+0x198>
9d007954:	2402ffff 	li	v0,-1
9d007958:	11000009 	beqz	t0,9d007980 <__floatdisf+0x5c>
9d00795c:	00051940 	sll	v1,a1,0x5
9d007960:	10800041 	beqz	a0,9d007a68 <__floatdisf+0x144>
9d007964:	3c028000 	lui	v0,0x8000
9d007968:	00042023 	negu	a0,a0
9d00796c:	00052823 	negu	a1,a1
9d007970:	0004102b 	sltu	v0,zero,a0
9d007974:	00a21023 	subu	v0,a1,v0
9d007978:	00402821 	move	a1,v0
9d00797c:	00051940 	sll	v1,a1,0x5
9d007980:	000416c2 	srl	v0,a0,0x1b
9d007984:	00621025 	or	v0,v1,v0
9d007988:	00051ec2 	srl	v1,a1,0x1b
9d00798c:	00431025 	or	v0,v0,v1
9d007990:	14400039 	bnez	v0,9d007a78 <__floatdisf+0x154>
9d007994:	00051980 	sll	v1,a1,0x6
9d007998:	00041682 	srl	v0,a0,0x1a
9d00799c:	00621025 	or	v0,v1,v0
9d0079a0:	00051e82 	srl	v1,a1,0x1a
9d0079a4:	00431025 	or	v0,v0,v1
9d0079a8:	54400012 	bnezl	v0,9d0079f4 <__floatdisf+0xd0>
9d0079ac:	24020099 	li	v0,153
9d0079b0:	2402001a 	li	v0,26
9d0079b4:	00043fc2 	srl	a3,a0,0x1f
9d0079b8:	00051840 	sll	v1,a1,0x1
9d0079bc:	00043040 	sll	a2,a0,0x1
9d0079c0:	00e31825 	or	v1,a3,v1
9d0079c4:	00c02021 	move	a0,a2
9d0079c8:	00602821 	move	a1,v1
9d0079cc:	00033180 	sll	a2,v1,0x6
9d0079d0:	00041e82 	srl	v1,a0,0x1a
9d0079d4:	00c31825 	or	v1,a2,v1
9d0079d8:	00053682 	srl	a2,a1,0x1a
9d0079dc:	00661825 	or	v1,v1,a2
9d0079e0:	1060fff4 	beqz	v1,9d0079b4 <__floatdisf+0x90>
9d0079e4:	2442ffff 	addiu	v0,v0,-1
9d0079e8:	2442007f 	addiu	v0,v0,127
9d0079ec:	18400046 	blez	v0,9d007b08 <__floatdisf+0x1e4>
9d0079f0:	24030001 	li	v1,1
9d0079f4:	30830007 	andi	v1,a0,0x7
9d0079f8:	1060000a 	beqz	v1,9d007a24 <__floatdisf+0x100>
9d0079fc:	284300ff 	slti	v1,v0,255
9d007a00:	7c8300c0 	ext	v1,a0,0x3,0x1
9d007a04:	24840003 	addiu	a0,a0,3
9d007a08:	00832021 	addu	a0,a0,v1
9d007a0c:	00041ec2 	srl	v1,a0,0x1b
9d007a10:	10600004 	beqz	v1,9d007a24 <__floatdisf+0x100>
9d007a14:	284300ff 	slti	v1,v0,255
9d007a18:	00042042 	srl	a0,a0,0x1
9d007a1c:	24420001 	addiu	v0,v0,1
9d007a20:	284300ff 	slti	v1,v0,255
9d007a24:	10600034 	beqz	v1,9d007af8 <__floatdisf+0x1d4>
9d007a28:	000420c2 	srl	a0,a0,0x3
9d007a2c:	7c8305c0 	ext	v1,a0,0x17,0x1
9d007a30:	50600002 	beqzl	v1,9d007a3c <__floatdisf+0x118>
9d007a34:	00001021 	move	v0,zero
9d007a38:	7c84b000 	ext	a0,a0,0x0,0x17
9d007a3c:	00084200 	sll	t0,t0,0x8
9d007a40:	00481025 	or	v0,v0,t0
9d007a44:	000215c0 	sll	v0,v0,0x17
9d007a48:	03e00008 	jr	ra
9d007a4c:	00441025 	or	v0,v0,a0
9d007a50:	54a0ffbb 	bnezl	a1,9d007940 <__floatdisf+0x1c>
9d007a54:	2402ffff 	li	v0,-1
9d007a58:	00081200 	sll	v0,t0,0x8
9d007a5c:	3442007f 	ori	v0,v0,0x7f
9d007a60:	03e00008 	jr	ra
9d007a64:	000215c0 	sll	v0,v0,0x17
9d007a68:	14a2ffc0 	bne	a1,v0,9d00796c <__floatdisf+0x48>
9d007a6c:	00042023 	negu	a0,a0
9d007a70:	00002021 	move	a0,zero
9d007a74:	3c058000 	lui	a1,0x8000
9d007a78:	2402001a 	li	v0,26
9d007a7c:	000537c0 	sll	a2,a1,0x1f
9d007a80:	00041842 	srl	v1,a0,0x1
9d007a84:	00c31825 	or	v1,a2,v1
9d007a88:	30870001 	andi	a3,a0,0x1
9d007a8c:	00053042 	srl	a2,a1,0x1
9d007a90:	00e32025 	or	a0,a3,v1
9d007a94:	00c02821 	move	a1,a2
9d007a98:	00041ec2 	srl	v1,a0,0x1b
9d007a9c:	00063140 	sll	a2,a2,0x5
9d007aa0:	00c31825 	or	v1,a2,v1
9d007aa4:	000536c2 	srl	a2,a1,0x1b
9d007aa8:	00661825 	or	v1,v1,a2
9d007aac:	1460fff3 	bnez	v1,9d007a7c <__floatdisf+0x158>
9d007ab0:	24420001 	addiu	v0,v0,1
9d007ab4:	0b401e7b 	j	9d0079ec <__floatdisf+0xc8>
9d007ab8:	2442007f 	addiu	v0,v0,127
9d007abc:	14a2ffa6 	bne	a1,v0,9d007958 <__floatdisf+0x34>
9d007ac0:	00081200 	sll	v0,t0,0x8
9d007ac4:	34420082 	ori	v0,v0,0x82
9d007ac8:	000215c0 	sll	v0,v0,0x17
9d007acc:	3c030020 	lui	v1,0x20
9d007ad0:	03e00008 	jr	ra
9d007ad4:	00431025 	or	v0,v0,v1
9d007ad8:	54a4ff9b 	bnel	a1,a0,9d007948 <__floatdisf+0x24>
9d007adc:	2402000a 	li	v0,10
9d007ae0:	0b401e97 	j	9d007a5c <__floatdisf+0x138>
9d007ae4:	00081200 	sll	v0,t0,0x8
9d007ae8:	54a0ff99 	bnezl	a1,9d007950 <__floatdisf+0x2c>
9d007aec:	2402fff6 	li	v0,-10
9d007af0:	0b401eb1 	j	9d007ac4 <__floatdisf+0x1a0>
9d007af4:	00081200 	sll	v0,t0,0x8
9d007af8:	00081200 	sll	v0,t0,0x8
9d007afc:	344200ff 	ori	v0,v0,0xff
9d007b00:	03e00008 	jr	ra
9d007b04:	000215c0 	sll	v0,v0,0x17
9d007b08:	00621023 	subu	v0,v1,v0
9d007b0c:	2843001b 	slti	v1,v0,27
9d007b10:	50600008 	beqzl	v1,9d007b34 <__floatdisf+0x210>
9d007b14:	00002021 	move	a0,zero
9d007b18:	00021823 	negu	v1,v0
9d007b1c:	00641804 	sllv	v1,a0,v1
9d007b20:	00441006 	srlv	v0,a0,v0
9d007b24:	0003202b 	sltu	a0,zero,v1
9d007b28:	00822025 	or	a0,a0,v0
9d007b2c:	0b401e7d 	j	9d0079f4 <__floatdisf+0xd0>
9d007b30:	24020001 	li	v0,1
9d007b34:	0b401e8f 	j	9d007a3c <__floatdisf+0x118>
9d007b38:	00001021 	move	v0,zero
9d007b3c:	03e00008 	jr	ra
9d007b40:	00000000 	nop

Disassembly of section .text.__ldexp:

9d007b44 <__ldexp>:
9d007b44:	27bdffd8 	addiu	sp,sp,-40
9d007b48:	afb10018 	sw	s1,24(sp)
9d007b4c:	7cb15500 	ext	s1,a1,0x14,0xb
9d007b50:	2622ffff 	addiu	v0,s1,-1
9d007b54:	2c4207fe 	sltiu	v0,v0,2046
9d007b58:	afb30020 	sw	s3,32(sp)
9d007b5c:	afb2001c 	sw	s2,28(sp)
9d007b60:	00c09821 	move	s3,a2
9d007b64:	afbf0024 	sw	ra,36(sp)
9d007b68:	afb00014 	sw	s0,20(sp)
9d007b6c:	000597c2 	srl	s2,a1,0x1f
9d007b70:	00803821 	move	a3,a0
9d007b74:	10400047 	beqz	v0,9d007c94 <__ldexp+0x150>
9d007b78:	7ca69800 	ext	a2,a1,0x0,0x14
9d007b7c:	3c030010 	lui	v1,0x10
9d007b80:	2622fc01 	addiu	v0,s1,-1023
9d007b84:	00c33025 	or	a2,a2,v1
9d007b88:	267303ff 	addiu	s3,s3,1023
9d007b8c:	00071f42 	srl	v1,a3,0x1d
9d007b90:	000688c0 	sll	s1,a2,0x3
9d007b94:	02629821 	addu	s3,s3,v0
9d007b98:	00718825 	or	s1,v1,s1
9d007b9c:	1a600029 	blez	s3,9d007c44 <__ldexp+0x100>
9d007ba0:	000780c0 	sll	s0,a3,0x3
9d007ba4:	32030007 	andi	v1,s0,0x7
9d007ba8:	14600016 	bnez	v1,9d007c04 <__ldexp+0xc0>
9d007bac:	7e0200c0 	ext	v0,s0,0x3,0x1
9d007bb0:	2a6207ff 	slti	v0,s3,2047
9d007bb4:	10400040 	beqz	v0,9d007cb8 <__ldexp+0x174>
9d007bb8:	001130c2 	srl	a2,s1,0x3
9d007bbc:	00111f40 	sll	v1,s1,0x1d
9d007bc0:	001020c2 	srl	a0,s0,0x3
9d007bc4:	7cc20500 	ext	v0,a2,0x14,0x1
9d007bc8:	10400039 	beqz	v0,9d007cb0 <__ldexp+0x16c>
9d007bcc:	00642025 	or	a0,v1,a0
9d007bd0:	7cc69800 	ext	a2,a2,0x0,0x14
9d007bd4:	001292c0 	sll	s2,s2,0xb
9d007bd8:	02729825 	or	s3,s3,s2
9d007bdc:	00131d00 	sll	v1,s3,0x14
9d007be0:	00801021 	move	v0,a0
9d007be4:	00661825 	or	v1,v1,a2
9d007be8:	8fbf0024 	lw	ra,36(sp)
9d007bec:	8fb30020 	lw	s3,32(sp)
9d007bf0:	8fb2001c 	lw	s2,28(sp)
9d007bf4:	8fb10018 	lw	s1,24(sp)
9d007bf8:	8fb00014 	lw	s0,20(sp)
9d007bfc:	03e00008 	jr	ra
9d007c00:	27bd0028 	addiu	sp,sp,40
9d007c04:	24420003 	addiu	v0,v0,3
9d007c08:	02021021 	addu	v0,s0,v0
9d007c0c:	0050182b 	sltu	v1,v0,s0
9d007c10:	00711821 	addu	v1,v1,s1
9d007c14:	00408021 	move	s0,v0
9d007c18:	7c620600 	ext	v0,v1,0x18,0x1
9d007c1c:	1040ffe4 	beqz	v0,9d007bb0 <__ldexp+0x6c>
9d007c20:	00608821 	move	s1,v1
9d007c24:	00101042 	srl	v0,s0,0x1
9d007c28:	00031fc0 	sll	v1,v1,0x1f
9d007c2c:	00621825 	or	v1,v1,v0
9d007c30:	00111042 	srl	v0,s1,0x1
9d007c34:	00608021 	move	s0,v1
9d007c38:	00408821 	move	s1,v0
9d007c3c:	0b401eec 	j	9d007bb0 <__ldexp+0x6c>
9d007c40:	26730001 	addiu	s3,s3,1
9d007c44:	24020001 	li	v0,1
9d007c48:	00539823 	subu	s3,v0,s3
9d007c4c:	2a620038 	slti	v0,s3,56
9d007c50:	5040001e 	beqzl	v0,9d007ccc <__ldexp+0x188>
9d007c54:	24100001 	li	s0,1
9d007c58:	02202821 	move	a1,s1
9d007c5c:	02603021 	move	a2,s3
9d007c60:	02002021 	move	a0,s0
9d007c64:	0f402713 	jal	9d009c4c <__lshrdi3>
9d007c68:	00139823 	negu	s3,s3
9d007c6c:	32650020 	andi	a1,s3,0x20
9d007c70:	54a00003 	bnezl	a1,9d007c80 <__ldexp+0x13c>
9d007c74:	02709804 	sllv	s3,s0,s3
9d007c78:	02719804 	sllv	s3,s1,s3
9d007c7c:	02709825 	or	s3,s3,s0
9d007c80:	0013982b 	sltu	s3,zero,s3
9d007c84:	02628025 	or	s0,s3,v0
9d007c88:	00608821 	move	s1,v1
9d007c8c:	0b401ee9 	j	9d007ba4 <__ldexp+0x60>
9d007c90:	24130001 	li	s3,1
9d007c94:	16200004 	bnez	s1,9d007ca8 <__ldexp+0x164>
9d007c98:	00801021 	move	v0,a0
9d007c9c:	00861025 	or	v0,a0,a2
9d007ca0:	1440000d 	bnez	v0,9d007cd8 <__ldexp+0x194>
9d007ca4:	00801021 	move	v0,a0
9d007ca8:	0b401efa 	j	9d007be8 <__ldexp+0xa4>
9d007cac:	00a01821 	move	v1,a1
9d007cb0:	0b401ef5 	j	9d007bd4 <__ldexp+0x90>
9d007cb4:	00009821 	move	s3,zero
9d007cb8:	00121ac0 	sll	v1,s2,0xb
9d007cbc:	346307ff 	ori	v1,v1,0x7ff
9d007cc0:	00031d00 	sll	v1,v1,0x14
9d007cc4:	0b401efa 	j	9d007be8 <__ldexp+0xa4>
9d007cc8:	00001021 	move	v0,zero
9d007ccc:	00008821 	move	s1,zero
9d007cd0:	0b401ee9 	j	9d007ba4 <__ldexp+0x60>
9d007cd4:	24130001 	li	s3,1
9d007cd8:	10c0000d 	beqz	a2,9d007d10 <__ldexp+0x1cc>
9d007cdc:	70918820 	clz	s1,a0
9d007ce0:	70d18820 	clz	s1,a2
9d007ce4:	2631fff5 	addiu	s1,s1,-11
9d007ce8:	5220ffa7 	beqzl	s1,9d007b88 <__ldexp+0x44>
9d007cec:	2402fc02 	li	v0,-1022
9d007cf0:	00c02821 	move	a1,a2
9d007cf4:	0f402724 	jal	9d009c90 <__ashldi3>
9d007cf8:	02203021 	move	a2,s1
9d007cfc:	00403821 	move	a3,v0
9d007d00:	2402fc02 	li	v0,-1022
9d007d04:	00603021 	move	a2,v1
9d007d08:	0b401ee2 	j	9d007b88 <__ldexp+0x44>
9d007d0c:	00511023 	subu	v0,v0,s1
9d007d10:	0b401f39 	j	9d007ce4 <__ldexp+0x1a0>
9d007d14:	26310020 	addiu	s1,s1,32

Disassembly of section .dinit:

9d007d18 <.dinit>:
9d007d18:	a0000040 	sb	zero,64(zero)
9d007d1c:	00000004 	sllv	zero,zero,zero
9d007d20:	00000000 	nop
9d007d24:	a0000044 	sb	zero,68(zero)
9d007d28:	0000000c 	syscall
9d007d2c:	00000000 	nop
9d007d30:	a0000030 	sb	zero,48(zero)
9d007d34:	00000008 	jr	zero
9d007d38:	00000001 	movf	zero,zero,$fcc0
9d007d3c:	ffffffff 	sdc3	$31,-1(ra)
9d007d40:	00000032 	tlt	zero,zero
9d007d44:	a0000050 	sb	zero,80(zero)
9d007d48:	0000001c 	0x1c
9d007d4c:	00000000 	nop
9d007d50:	a00000a4 	sb	zero,164(zero)
9d007d54:	00001f40 	sll	v1,zero,0x1d
9d007d58:	00000000 	nop
9d007d5c:	a000006c 	sb	zero,108(zero)
9d007d60:	00000018 	mult	zero,zero
9d007d64:	00000000 	nop
9d007d68:	a0001fe4 	sb	zero,8164(zero)
9d007d6c:	00005dc0 	sll	t3,zero,0x17
9d007d70:	00000000 	nop
9d007d74:	a0007e84 	sb	zero,32388(zero)
9d007d78:	00000004 	sllv	zero,zero,zero
9d007d7c:	00000000 	nop
9d007d80:	a0007e88 	sb	zero,32392(zero)
9d007d84:	00000004 	sllv	zero,zero,zero
9d007d88:	00000000 	nop
9d007d8c:	a0007da4 	sb	zero,32164(zero)
9d007d90:	000000a0 	0xa0
9d007d94:	00000001 	movf	zero,zero,$fcc0
9d007d98:	a0007e44 	sb	zero,32324(zero)
9d007d9c:	00000000 	nop
9d007da0:	a0007e44 	sb	zero,32324(zero)
9d007da4:	00000009 	jalr	zero,zero
9d007da8:	00000020 	add	zero,zero,zero
9d007dac:	a0007e64 	sb	zero,32356(zero)
9d007db0:	00000000 	nop
9d007db4:	a0007e64 	sb	zero,32356(zero)
9d007db8:	0001020e 	0x1020e
	...
9d007dcc:	00020206 	0x20206
	...
9d007e38:	a0007e44 	sb	zero,32324(zero)
9d007e3c:	00000040 	ssnop
9d007e40:	00000000 	nop
9d007e44:	a0000038 	sb	zero,56(zero)
9d007e48:	00000004 	sllv	zero,zero,zero
9d007e4c:	00000001 	movf	zero,zero,$fcc0
9d007e50:	a0007da4 	sb	zero,32164(zero)
9d007e54:	a0000084 	sb	zero,132(zero)
9d007e58:	00000001 	movf	zero,zero,$fcc0
9d007e5c:	00000000 	nop
9d007e60:	a000003c 	sb	zero,60(zero)
9d007e64:	00000004 	sllv	zero,zero,zero
9d007e68:	00000001 	movf	zero,zero,$fcc0
9d007e6c:	00000002 	srl	zero,zero,0x0
9d007e70:	a0000000 	sb	zero,0(zero)
9d007e74:	00000020 	add	zero,zero,zero
9d007e78:	00000001 	movf	zero,zero,$fcc0
9d007e7c:	0000000c 	syscall
9d007e80:	00000000 	nop
9d007e84:	7c010001 	0x7c010001
9d007e88:	001d0c1f 	0x1d0c1f
9d007e8c:	0000000c 	syscall
9d007e90:	00000014 	0x14
9d007e94:	9d0052ec 	0x9d0052ec
9d007e98:	0000045c 	0x45c
9d007e9c:	a0000020 	sb	zero,32(zero)
9d007ea0:	00000010 	mfhi	zero
9d007ea4:	00000001 	movf	zero,zero,$fcc0
9d007ea8:	0000000c 	syscall
9d007eac:	00000024 	and	zero,zero,zero
9d007eb0:	3a00b740 	xori	zero,s0,0xb740
9d007eb4:	00000448 	0x448
9d007eb8:	a0000088 	sb	zero,136(zero)
9d007ebc:	00000004 	sllv	zero,zero,zero
	...
9d007ec8:	22222222 	addi	v0,s1,8738
9d007ecc:	22222222 	addi	v0,s1,8738
9d007ed0:	22222222 	addi	v0,s1,8738
9d007ed4:	22222222 	addi	v0,s1,8738

Disassembly of section .text.fp32mul:

9d007ed8 <__mulsf3>:
9d007ed8:	00043dc2 30e700ff 00054dc2 312900ff     .=.....0.M....)1
9d007ee8:	3c0a8000 00043200 00ca3025 00054200     ...<.2..%0...B..
9d007ef8:	010a4025 00856026 014c5024 24ecffff     %@..&`..$PL....$
9d007f08:	2d8100fe 10200021 00000000              ...-!. .....

9d007f14 <Clab1>:
9d007f14:	252cffff 	addiu	t4,t1,-1
9d007f18:	2d8100fe 	sltiu	at,t4,254
9d007f1c:	10200036 	beqz	at,9d007ff8 <CspecB>
9d007f20:	00000000 	nop

9d007f24 <Clab2>:
9d007f24:	00c80019 	multu	a2,t0
9d007f28:	00005812 	mflo	t3
9d007f2c:	11600002 	beqz	t3,9d007f38 <i17>
9d007f30:	00003010 	mfhi	a2
9d007f34:	34c60001 	ori	a2,a2,0x1

9d007f38 <i17>:
9d007f38:	04c00003 	bltz	a2,9d007f48 <i18>
9d007f3c:	00000000 	nop
9d007f40:	00063040 	sll	a2,a2,0x1
9d007f44:	24e7ffff 	addiu	a3,a3,-1

9d007f48 <i18>:
9d007f48:	252cff82 	addiu	t4,t1,-126
9d007f4c:	00ec3821 	addu	a3,a3,t4
9d007f50:	24ecffff 	addiu	t4,a3,-1
9d007f54:	2d8100fe 	sltiu	at,t4,254
9d007f58:	1020003a 	beqz	at,9d008044 <Coveund>
9d007f5c:	00000000 	nop

9d007f60 <Clab8>:
9d007f60:	24c60080 	addiu	a2,a2,128
9d007f64:	2ccc0080 	sltiu	t4,a2,128
9d007f68:	00ec3821 	addu	a3,a3,t4
9d007f6c:	00066202 	srl	t4,a2,0x8
9d007f70:	318c0001 	andi	t4,t4,0x1
9d007f74:	00cc3023 	subu	a2,a2,t4
9d007f78:	00063040 	sll	a2,a2,0x1
9d007f7c:	00063242 	srl	a2,a2,0x9
9d007f80:	000765c0 	sll	t4,a3,0x17
9d007f84:	00cc3025 	or	a2,a2,t4
9d007f88:	00ca1025 	or	v0,a2,t2

9d007f8c <C999>:
9d007f8c:	03e00008 	jr	ra
9d007f90:	00000000 	nop

9d007f94 <CspecA>:
9d007f94:	14e0000d 	bnez	a3,9d007fcc <i19>
9d007f98:	00000000 	nop
9d007f9c:	00c63021 	addu	a2,a2,a2
9d007fa0:	10c00005 	beqz	a2,9d007fb8 <i20>
9d007fa4:	00000000 	nop
9d007fa8:	70cb5820 	clz	t3,a2
9d007fac:	00eb3823 	subu	a3,a3,t3
9d007fb0:	1000ffd8 	b	9d007f14 <Clab1>
9d007fb4:	01663004 	sllv	a2,a2,t3

9d007fb8 <i20>:
9d007fb8:	240100ff 	li	at,255
9d007fbc:	1121001f 	beq	t1,at,9d00803c <Cnan>
9d007fc0:	00000000 	nop
9d007fc4:	10000015 	b	9d00801c <Czer>
9d007fc8:	00000000 	nop

9d007fcc <i19>:
9d007fcc:	00c66021 	addu	t4,a2,a2
9d007fd0:	1580001a 	bnez	t4,9d00803c <Cnan>
9d007fd4:	00000000 	nop
9d007fd8:	15200004 	bnez	t1,9d007fec <i21>
9d007fdc:	00000000 	nop
9d007fe0:	01086021 	addu	t4,t0,t0
9d007fe4:	11800015 	beqz	t4,9d00803c <Cnan>
9d007fe8:	00000000 	nop

9d007fec <i21>:
9d007fec:	240100ff 	li	at,255
9d007ff0:	1521000f 	bne	t1,at,9d008030 <Cinf>
9d007ff4:	00000000 	nop

9d007ff8 <CspecB>:
9d007ff8:	1520000a 	bnez	t1,9d008024 <i22>
9d007ffc:	00000000 	nop
9d008000:	01084021 	addu	t0,t0,t0
9d008004:	11000005 	beqz	t0,9d00801c <Czer>
9d008008:	00000000 	nop
9d00800c:	710b5820 	clz	t3,t0
9d008010:	012b4823 	subu	t1,t1,t3
9d008014:	1000ffc3 	b	9d007f24 <Clab2>
9d008018:	01684004 	sllv	t0,t0,t3

9d00801c <Czer>:
9d00801c:	1000ffdb 	b	9d007f8c <C999>
9d008020:	000a1025 	or	v0,zero,t2

9d008024 <i22>:
9d008024:	01086021 	addu	t4,t0,t0
9d008028:	15800004 	bnez	t4,9d00803c <Cnan>
9d00802c:	00000000 	nop

9d008030 <Cinf>:
9d008030:	3c017f80 	lui	at,0x7f80
9d008034:	1000ffd5 	b	9d007f8c <C999>
9d008038:	01411025 	or	v0,t2,at

9d00803c <Cnan>:
9d00803c:	1000ffd3 	b	9d007f8c <C999>
9d008040:	3c02ffc0 	lui	v0,0xffc0

9d008044 <Coveund>:
9d008044:	1ce0fffa 	bgtz	a3,9d008030 <Cinf>
9d008048:	00000000 	nop
9d00804c:	240b0001 	li	t3,1
9d008050:	01675823 	subu	t3,t3,a3
9d008054:	2d610020 	sltiu	at,t3,32
9d008058:	1020fff0 	beqz	at,9d00801c <Czer>
9d00805c:	00000000 	nop
9d008060:	240c0020 	li	t4,32
9d008064:	018b6023 	subu	t4,t4,t3
9d008068:	01863804 	sllv	a3,a2,t4
9d00806c:	10e00002 	beqz	a3,9d008078 <i25>
9d008070:	01663006 	srlv	a2,a2,t3
9d008074:	34c60002 	ori	a2,a2,0x2

9d008078 <i25>:
9d008078:	24070000 	li	a3,0
9d00807c:	24cc0080 	addiu	t4,a2,128
9d008080:	0581ffb7 	bgez	t4,9d007f60 <Clab8>
9d008084:	00000000 	nop
9d008088:	1000ffb5 	b	9d007f60 <Clab8>
9d00808c:	24070001 	li	a3,1
9d008090:	00000000 	nop

Disassembly of section .text:

9d008094 <util_state_get>:
int SenseArray[PLOTPTS];     //measured values to plot
int REFarray[PLOTPTS];       //reference value to plot
float CONTROLarray[PLOTPTS]; //array of control efforts

state_t util_state_get(void){               // get the current state
  int current_state=state;
9d008094:	8f828060 	lw	v0,-32672(gp)
  return current_state;
  }
9d008098:	03e00008 	jr	ra
9d00809c:	00000000 	nop

9d0080a0 <util_state_set>:

void util_state_set(state_t s){         // automically set the current state. 
  state=s;
9d0080a0:	af848060 	sw	a0,-32672(gp)
  }
9d0080a4:	03e00008 	jr	ra
9d0080a8:	00000000 	nop

9d0080ac <util_buffer_init>:

void util_buffer_init(unsigned int n){  // initialize the buffer to record n samples
  NumSamps=n+AddSamps;
9d0080ac:	8f82805c 	lw	v0,-32676(gp)
9d0080b0:	00821021 	addu	v0,a0,v0
9d0080b4:	af828050 	sw	v0,-32688(gp)
  StoringData=1;
9d0080b8:	24020001 	li	v0,1
9d0080bc:	af82804c 	sw	v0,-32692(gp)
  }
9d0080c0:	03e00008 	jr	ra
9d0080c4:	00000000 	nop

9d0080c8 <util_samples_set>:

void util_samples_set(unsigned int n){  // set the addition samples to record
  AddSamps=n;
 }
9d0080c8:	03e00008 	jr	ra
9d0080cc:	af84805c 	sw	a0,-32676(gp)

9d0080d0 <util_buffer_write>:

void util_buffer_write(control_data d){ // write data to the current buffer position, if not full
9d0080d0:	afa40000 	sw	a0,0(sp)
9d0080d4:	afa50004 	sw	a1,4(sp)
9d0080d8:	afa60008 	sw	a2,8(sp)
    static int plotind=0, decctr=0;
    
    if (StoringData) {
9d0080dc:	8f82804c 	lw	v0,-32692(gp)
9d0080e0:	1040001e 	beqz	v0,9d00815c <util_buffer_write+0x8c>
9d0080e4:	8f828054 	lw	v0,-32684(gp)
    decctr++;
9d0080e8:	24420001 	addiu	v0,v0,1
    if (decctr == DECIMATION) {             // after DECIMATION control loops,
9d0080ec:	24030002 	li	v1,2
9d0080f0:	14430014 	bne	v0,v1,9d008144 <util_buffer_write+0x74>
9d0080f4:	af828054 	sw	v0,-32684(gp)
      decctr = 0;                           // reset decimation counter
9d0080f8:	af808054 	sw	zero,-32684(gp)
      SenseArray[plotind] = d.sensor;           // store data in global arrays
9d0080fc:	8f838058 	lw	v1,-32680(gp)
9d008100:	00031080 	sll	v0,v1,0x2
9d008104:	3c04a000 	lui	a0,0xa000
9d008108:	24843f24 	addiu	a0,a0,16164
9d00810c:	00442021 	addu	a0,v0,a0
9d008110:	ac850000 	sw	a1,0(a0)
      REFarray[plotind] = d.reference;
9d008114:	3c04a000 	lui	a0,0xa000
9d008118:	24845e64 	addiu	a0,a0,24164
9d00811c:	00442021 	addu	a0,v0,a0
9d008120:	8fa50000 	lw	a1,0(sp)
9d008124:	ac850000 	sw	a1,0(a0)
      CONTROLarray[plotind]=d.control;
9d008128:	3c04a000 	lui	a0,0xa000
9d00812c:	24841fe4 	addiu	a0,a0,8164
9d008130:	00442021 	addu	a0,v0,a0
9d008134:	8fa20008 	lw	v0,8(sp)
9d008138:	ac820000 	sw	v0,0(a0)
      plotind++;                            // increment plot data index
9d00813c:	24630001 	addiu	v1,v1,1
9d008140:	af838058 	sw	v1,-32680(gp)
     }
    if (plotind == NumSamps) {              // if max number of plot points plot is reached,
9d008144:	8f828050 	lw	v0,-32688(gp)
9d008148:	8f838058 	lw	v1,-32680(gp)
9d00814c:	14620003 	bne	v1,v0,9d00815c <util_buffer_write+0x8c>
9d008150:	00000000 	nop
      plotind = 0;                        // reset the plot index
9d008154:	af808058 	sw	zero,-32680(gp)
      StoringData = 0;                    // tell util_buffer_output() data is ready to be sent to Matlab
9d008158:	af80804c 	sw	zero,-32692(gp)
9d00815c:	03e00008 	jr	ra
9d008160:	00000000 	nop

9d008164 <util_buffer_output>:
     }
  }
  }

void util_buffer_output(void){              // wait for the buffer to be full and output it to the client
9d008164:	27bdff00 	addiu	sp,sp,-256
9d008168:	afbf00fc 	sw	ra,252(sp)
9d00816c:	afb500f8 	sw	s5,248(sp)
9d008170:	afb400f4 	sw	s4,244(sp)
9d008174:	afb300f0 	sw	s3,240(sp)
9d008178:	afb200ec 	sw	s2,236(sp)
9d00817c:	afb100e8 	sw	s1,232(sp)
9d008180:	afb000e4 	sw	s0,228(sp)
    while(StoringData) { //wait until flag says data storing is done
9d008184:	8f82804c 	lw	v0,-32692(gp)
9d008188:	1440fffe 	bnez	v0,9d008184 <util_buffer_output+0x20>
9d00818c:	27a40018 	addiu	a0,sp,24
      ;     //do nothing 
    }
   char data[SEND_SZ]; //message to MATLAB
    sprintf(data, "%d\r\n", NumSamps);  //send total number of samples to be sent
9d008190:	3c059d01 	lui	a1,0x9d01
9d008194:	24a59f7c 	addiu	a1,a1,-24708
9d008198:	0f402615 	jal	9d009854 <_sprintf_cdfFnopuxX>
9d00819c:	8f868050 	lw	a2,-32688(gp)
    NU32_WriteUART1(data);
9d0081a0:	0f401afe 	jal	9d006bf8 <NU32_WriteUART1>
9d0081a4:	27a40018 	addiu	a0,sp,24
     int i;
   for (i=0; i<NumSamps; i++) {  //send plot data to Matlab
9d0081a8:	8f828050 	lw	v0,-32688(gp)
9d0081ac:	1840001b 	blez	v0,9d00821c <util_buffer_output+0xb8>
9d0081b0:	00008021 	move	s0,zero
9d0081b4:	00008821 	move	s1,zero
      StoringData = 0;                    // tell util_buffer_output() data is ready to be sent to Matlab
     }
  }
  }

void util_buffer_output(void){              // wait for the buffer to be full and output it to the client
9d0081b8:	3c12a000 	lui	s2,0xa000
9d0081bc:	26525e64 	addiu	s2,s2,24164
9d0081c0:	3c13a000 	lui	s3,0xa000
9d0081c4:	26733f24 	addiu	s3,s3,16164
9d0081c8:	3c14a000 	lui	s4,0xa000
9d0081cc:	26941fe4 	addiu	s4,s4,8164
   char data[SEND_SZ]; //message to MATLAB
    sprintf(data, "%d\r\n", NumSamps);  //send total number of samples to be sent
    NU32_WriteUART1(data);
     int i;
   for (i=0; i<NumSamps; i++) {  //send plot data to Matlab
    sprintf(data, "%d %d %f\r\n", REFarray[i], SenseArray[i], CONTROLarray[i]);
9d0081d0:	3c159d01 	lui	s5,0x9d01
9d0081d4:	26b59f84 	addiu	s5,s5,-24700
      StoringData = 0;                    // tell util_buffer_output() data is ready to be sent to Matlab
     }
  }
  }

void util_buffer_output(void){              // wait for the buffer to be full and output it to the client
9d0081d8:	02501021 	addu	v0,s2,s0
   char data[SEND_SZ]; //message to MATLAB
    sprintf(data, "%d\r\n", NumSamps);  //send total number of samples to be sent
    NU32_WriteUART1(data);
     int i;
   for (i=0; i<NumSamps; i++) {  //send plot data to Matlab
    sprintf(data, "%d %d %f\r\n", REFarray[i], SenseArray[i], CONTROLarray[i]);
9d0081dc:	8c460000 	lw	a2,0(v0)
      StoringData = 0;                    // tell util_buffer_output() data is ready to be sent to Matlab
     }
  }
  }

void util_buffer_output(void){              // wait for the buffer to be full and output it to the client
9d0081e0:	02701021 	addu	v0,s3,s0
   char data[SEND_SZ]; //message to MATLAB
    sprintf(data, "%d\r\n", NumSamps);  //send total number of samples to be sent
    NU32_WriteUART1(data);
     int i;
   for (i=0; i<NumSamps; i++) {  //send plot data to Matlab
    sprintf(data, "%d %d %f\r\n", REFarray[i], SenseArray[i], CONTROLarray[i]);
9d0081e4:	8c470000 	lw	a3,0(v0)
      StoringData = 0;                    // tell util_buffer_output() data is ready to be sent to Matlab
     }
  }
  }

void util_buffer_output(void){              // wait for the buffer to be full and output it to the client
9d0081e8:	02901021 	addu	v0,s4,s0
   char data[SEND_SZ]; //message to MATLAB
    sprintf(data, "%d\r\n", NumSamps);  //send total number of samples to be sent
    NU32_WriteUART1(data);
     int i;
   for (i=0; i<NumSamps; i++) {  //send plot data to Matlab
    sprintf(data, "%d %d %f\r\n", REFarray[i], SenseArray[i], CONTROLarray[i]);
9d0081ec:	8c420000 	lw	v0,0(v0)
9d0081f0:	afa20010 	sw	v0,16(sp)
9d0081f4:	27a40018 	addiu	a0,sp,24
9d0081f8:	0f402615 	jal	9d009854 <_sprintf_cdfFnopuxX>
9d0081fc:	02a02821 	move	a1,s5
    NU32_WriteUART1(data);
9d008200:	0f401afe 	jal	9d006bf8 <NU32_WriteUART1>
9d008204:	27a40018 	addiu	a0,sp,24
    }
   char data[SEND_SZ]; //message to MATLAB
    sprintf(data, "%d\r\n", NumSamps);  //send total number of samples to be sent
    NU32_WriteUART1(data);
     int i;
   for (i=0; i<NumSamps; i++) {  //send plot data to Matlab
9d008208:	26310001 	addiu	s1,s1,1
9d00820c:	8f828050 	lw	v0,-32688(gp)
9d008210:	0222102a 	slt	v0,s1,v0
9d008214:	1440fff0 	bnez	v0,9d0081d8 <util_buffer_output+0x74>
9d008218:	26100004 	addiu	s0,s0,4
    sprintf(data, "%d %d %f\r\n", REFarray[i], SenseArray[i], CONTROLarray[i]);
    NU32_WriteUART1(data);
    }                
  }
9d00821c:	8fbf00fc 	lw	ra,252(sp)
9d008220:	8fb500f8 	lw	s5,248(sp)
9d008224:	8fb400f4 	lw	s4,244(sp)
9d008228:	8fb300f0 	lw	s3,240(sp)
9d00822c:	8fb200ec 	lw	s2,236(sp)
9d008230:	8fb100e8 	lw	s1,232(sp)
9d008234:	8fb000e4 	lw	s0,228(sp)
9d008238:	03e00008 	jr	ra
9d00823c:	27bd0100 	addiu	sp,sp,256

Disassembly of section .text._filbuf:

9d008240 <_filbuf>:
9d008240:	9482000c 	lhu	v0,12(a0)
9d008244:	27bdffd0 	addiu	sp,sp,-48
9d008248:	30420001 	andi	v0,v0,0x1
9d00824c:	afb00018 	sw	s0,24(sp)
9d008250:	afbf002c 	sw	ra,44(sp)
9d008254:	afb40028 	sw	s4,40(sp)
9d008258:	afb30024 	sw	s3,36(sp)
9d00825c:	afb20020 	sw	s2,32(sp)
9d008260:	afb1001c 	sw	s1,28(sp)
9d008264:	00808021 	move	s0,a0
9d008268:	1040003e 	beqz	v0,9d008364 <_filbuf+0x124>
9d00826c:	ac800004 	sw	zero,4(a0)
9d008270:	3c14a000 	lui	s4,0xa000
9d008274:	82820084 	lb	v0,132(s4)
9d008278:	50400013 	beqzl	v0,9d0082c8 <_filbuf+0x88>
9d00827c:	8e060010 	lw	a2,16(s0)
9d008280:	3c11a000 	lui	s1,0xa000
9d008284:	26317da4 	addiu	s1,s1,32164
9d008288:	263300a0 	addiu	s3,s1,160
9d00828c:	0b4020a7 	j	9d00829c <_filbuf+0x5c>
9d008290:	24120102 	li	s2,258
9d008294:	5233000b 	beql	s1,s3,9d0082c4 <_filbuf+0x84>
9d008298:	a2800084 	sb	zero,132(s4)
9d00829c:	9622000c 	lhu	v0,12(s1)
9d0082a0:	30420102 	andi	v0,v0,0x102
9d0082a4:	5452fffb 	bnel	v0,s2,9d008294 <_filbuf+0x54>
9d0082a8:	26310014 	addiu	s1,s1,20
9d0082ac:	02202021 	move	a0,s1
9d0082b0:	0f40252d 	jal	9d0094b4 <fflush>
9d0082b4:	26310014 	addiu	s1,s1,20
9d0082b8:	5633fff9 	bnel	s1,s3,9d0082a0 <_filbuf+0x60>
9d0082bc:	9622000c 	lhu	v0,12(s1)
9d0082c0:	a2800084 	sb	zero,132(s4)
9d0082c4:	8e060010 	lw	a2,16(s0)
9d0082c8:	10c00017 	beqz	a2,9d008328 <_filbuf+0xe8>
9d0082cc:	9604000e 	lhu	a0,14(s0)
9d0082d0:	0f4020f2 	jal	9d0083c8 <.LFE0>
9d0082d4:	8e050008 	lw	a1,8(s0)
9d0082d8:	10400030 	beqz	v0,9d00839c <_filbuf+0x15c>
9d0082dc:	ae020004 	sw	v0,4(s0)
9d0082e0:	2403ffff 	li	v1,-1
9d0082e4:	50430035 	beql	v0,v1,9d0083bc <_filbuf+0x17c>
9d0082e8:	9602000c 	lhu	v0,12(s0)
9d0082ec:	8e030008 	lw	v1,8(s0)
9d0082f0:	2442ffff 	addiu	v0,v0,-1
9d0082f4:	ae030000 	sw	v1,0(s0)
9d0082f8:	ae020004 	sw	v0,4(s0)
9d0082fc:	24640001 	addiu	a0,v1,1
9d008300:	90620000 	lbu	v0,0(v1)
9d008304:	ae040000 	sw	a0,0(s0)
9d008308:	8fbf002c 	lw	ra,44(sp)
9d00830c:	8fb40028 	lw	s4,40(sp)
9d008310:	8fb30024 	lw	s3,36(sp)
9d008314:	8fb20020 	lw	s2,32(sp)
9d008318:	8fb1001c 	lw	s1,28(sp)
9d00831c:	8fb00018 	lw	s0,24(sp)
9d008320:	03e00008 	jr	ra
9d008324:	27bd0030 	addiu	sp,sp,48
9d008328:	ae000004 	sw	zero,4(s0)
9d00832c:	27a50010 	addiu	a1,sp,16
9d008330:	0f4020f2 	jal	9d0083c8 <.LFE0>
9d008334:	24060001 	li	a2,1
9d008338:	24030001 	li	v1,1
9d00833c:	14430012 	bne	v0,v1,9d008388 <_filbuf+0x148>
9d008340:	8fbf002c 	lw	ra,44(sp)
9d008344:	93a20010 	lbu	v0,16(sp)
9d008348:	8fb40028 	lw	s4,40(sp)
9d00834c:	8fb30024 	lw	s3,36(sp)
9d008350:	8fb20020 	lw	s2,32(sp)
9d008354:	8fb1001c 	lw	s1,28(sp)
9d008358:	8fb00018 	lw	s0,24(sp)
9d00835c:	03e00008 	jr	ra
9d008360:	27bd0030 	addiu	sp,sp,48
9d008364:	8fbf002c 	lw	ra,44(sp)
9d008368:	2402ffff 	li	v0,-1
9d00836c:	8fb40028 	lw	s4,40(sp)
9d008370:	8fb30024 	lw	s3,36(sp)
9d008374:	8fb20020 	lw	s2,32(sp)
9d008378:	8fb1001c 	lw	s1,28(sp)
9d00837c:	8fb00018 	lw	s0,24(sp)
9d008380:	03e00008 	jr	ra
9d008384:	27bd0030 	addiu	sp,sp,48
9d008388:	9603000c 	lhu	v1,12(s0)
9d00838c:	2402ffff 	li	v0,-1
9d008390:	34630010 	ori	v1,v1,0x10
9d008394:	0b4020c2 	j	9d008308 <_filbuf+0xc8>
9d008398:	a603000c 	sh	v1,12(s0)
9d00839c:	9602000c 	lhu	v0,12(s0)
9d0083a0:	34420010 	ori	v0,v0,0x10
9d0083a4:	a602000c 	sh	v0,12(s0)
9d0083a8:	8e020008 	lw	v0,8(s0)
9d0083ac:	ae000004 	sw	zero,4(s0)
9d0083b0:	ae020000 	sw	v0,0(s0)
9d0083b4:	0b4020c2 	j	9d008308 <_filbuf+0xc8>
9d0083b8:	2402ffff 	li	v0,-1
9d0083bc:	34420030 	ori	v0,v0,0x30
9d0083c0:	0b4020ea 	j	9d0083a8 <_filbuf+0x168>
9d0083c4:	a602000c 	sh	v0,12(s0)

Disassembly of section .text.read:

9d0083c8 <read>:
9d0083c8:	27bdffe0 	addiu	sp,sp,-32
9d0083cc:	afb00010 	sw	s0,16(sp)
9d0083d0:	afbf001c 	sw	ra,28(sp)
9d0083d4:	afb20018 	sw	s2,24(sp)
9d0083d8:	afb10014 	sw	s1,20(sp)
9d0083dc:	10a0001c 	beqz	a1,9d008450 <read+0x88>
9d0083e0:	00a08021 	move	s0,a1
9d0083e4:	50c0001b 	beqzl	a2,9d008454 <read+0x8c>
9d0083e8:	8fbf001c 	lw	ra,28(sp)
9d0083ec:	14800011 	bnez	a0,9d008434 <read+0x6c>
9d0083f0:	00c09021 	move	s2,a2
9d0083f4:	3c020000 	lui	v0,0x0
9d0083f8:	24420000 	addiu	v0,v0,0
9d0083fc:	1040001c 	beqz	v0,9d008470 <read+0xa8>
9d008400:	00a68821 	addu	s1,a1,a2
9d008404:	0c000000 	jal	90000000 <_bmxdkpba_address+0x8ffe0000>
9d008408:	24040001 	li	a0,1
9d00840c:	a2020000 	sb	v0,0(s0)
9d008410:	26100001 	addiu	s0,s0,1
9d008414:	1611fffb 	bne	s0,s1,9d008404 <read+0x3c>
9d008418:	8fbf001c 	lw	ra,28(sp)
9d00841c:	02401021 	move	v0,s2
9d008420:	8fb10014 	lw	s1,20(sp)
9d008424:	8fb20018 	lw	s2,24(sp)
9d008428:	8fb00010 	lw	s0,16(sp)
9d00842c:	03e00008 	jr	ra
9d008430:	27bd0020 	addiu	sp,sp,32
9d008434:	8fbf001c 	lw	ra,28(sp)
9d008438:	02401021 	move	v0,s2
9d00843c:	8fb10014 	lw	s1,20(sp)
9d008440:	8fb20018 	lw	s2,24(sp)
9d008444:	8fb00010 	lw	s0,16(sp)
9d008448:	03e00008 	jr	ra
9d00844c:	27bd0020 	addiu	sp,sp,32
9d008450:	8fbf001c 	lw	ra,28(sp)
9d008454:	00009021 	move	s2,zero
9d008458:	02401021 	move	v0,s2
9d00845c:	8fb10014 	lw	s1,20(sp)
9d008460:	8fb20018 	lw	s2,24(sp)
9d008464:	8fb00010 	lw	s0,16(sp)
9d008468:	03e00008 	jr	ra
9d00846c:	27bd0020 	addiu	sp,sp,32
9d008470:	3c02a000 	lui	v0,0xa000
9d008474:	8c43003c 	lw	v1,60(v0)
9d008478:	24020002 	li	v0,2
9d00847c:	10620024 	beq	v1,v0,9d008510 <read+0x148>
9d008480:	3c02bf80 	lui	v0,0xbf80
9d008484:	3c02bf80 	lui	v0,0xbf80
9d008488:	3c05bf80 	lui	a1,0xbf80
9d00848c:	3c04bf80 	lui	a0,0xbf80
9d008490:	8c426000 	lw	v0,24576(v0)
9d008494:	24a56030 	addiu	a1,a1,24624
9d008498:	24846010 	addiu	a0,a0,24592
9d00849c:	30428000 	andi	v0,v0,0x8000
9d0084a0:	14400005 	bnez	v0,9d0084b8 <read+0xf0>
9d0084a4:	00c09021 	move	s2,a2
9d0084a8:	34038000 	li	v1,0x8000
9d0084ac:	3c02bf80 	lui	v0,0xbf80
9d0084b0:	ac436008 	sw	v1,24584(v0)
9d0084b4:	00c09021 	move	s2,a2
9d0084b8:	8c820000 	lw	v0,0(a0)
9d0084bc:	30420001 	andi	v0,v0,0x1
9d0084c0:	14400009 	bnez	v0,9d0084e8 <read+0x120>
9d0084c4:	240200a0 	li	v0,160
9d0084c8:	0b402136 	j	9d0084d8 <read+0x110>
9d0084cc:	00000000 	nop
9d0084d0:	10400005 	beqz	v0,9d0084e8 <read+0x120>
9d0084d4:	00000000 	nop
9d0084d8:	8c830000 	lw	v1,0(a0)
9d0084dc:	30630001 	andi	v1,v1,0x1
9d0084e0:	1060fffb 	beqz	v1,9d0084d0 <read+0x108>
9d0084e4:	2442ffff 	addiu	v0,v0,-1
9d0084e8:	8c820000 	lw	v0,0(a0)
9d0084ec:	30420001 	andi	v0,v0,0x1
9d0084f0:	5440ffd0 	bnezl	v0,9d008434 <read+0x6c>
9d0084f4:	00d29023 	subu	s2,a2,s2
9d0084f8:	8ca20000 	lw	v0,0(a1)
9d0084fc:	2652ffff 	addiu	s2,s2,-1
9d008500:	1240000c 	beqz	s2,9d008534 <read+0x16c>
9d008504:	a2020000 	sb	v0,0(s0)
9d008508:	0b40212e 	j	9d0084b8 <read+0xf0>
9d00850c:	26100001 	addiu	s0,s0,1
9d008510:	24426840 	addiu	v0,v0,26688
9d008514:	1040ffdb 	beqz	v0,9d008484 <read+0xbc>
9d008518:	3c02bf80 	lui	v0,0xbf80
9d00851c:	3c05bf80 	lui	a1,0xbf80
9d008520:	3c04bf80 	lui	a0,0xbf80
9d008524:	8c426800 	lw	v0,26624(v0)
9d008528:	24a56830 	addiu	a1,a1,26672
9d00852c:	0b402127 	j	9d00849c <read+0xd4>
9d008530:	24846810 	addiu	a0,a0,26640
9d008534:	0b40210d 	j	9d008434 <read+0x6c>
9d008538:	00d29023 	subu	s2,a2,s2

Disassembly of section .text.fputc:

9d00853c <fputc>:
9d00853c:	94a2000c 	lhu	v0,12(a1)
9d008540:	27bdffe0 	addiu	sp,sp,-32
9d008544:	30430002 	andi	v1,v0,0x2
9d008548:	afb00014 	sw	s0,20(sp)
9d00854c:	afbf001c 	sw	ra,28(sp)
9d008550:	afb10018 	sw	s1,24(sp)
9d008554:	1060002b 	beqz	v1,9d008604 <fputc+0xc8>
9d008558:	00a08021 	move	s0,a1
9d00855c:	30430200 	andi	v1,v0,0x200
9d008560:	1060001c 	beqz	v1,9d0085d4 <fputc+0x98>
9d008564:	8ca30004 	lw	v1,4(a1)
9d008568:	34420200 	ori	v0,v0,0x200
9d00856c:	a4a2000c 	sh	v0,12(a1)
9d008570:	1060001d 	beqz	v1,9d0085e8 <fputc+0xac>
9d008574:	309100ff 	andi	s1,a0,0xff
9d008578:	2404000a 	li	a0,10
9d00857c:	12240028 	beq	s1,a0,9d008620 <fputc+0xe4>
9d008580:	30420080 	andi	v0,v0,0x80
9d008584:	8e020010 	lw	v0,16(s0)
9d008588:	1062003e 	beq	v1,v0,9d008684 <fputc+0x148>
9d00858c:	24630001 	addiu	v1,v1,1
9d008590:	8e020000 	lw	v0,0(s0)
9d008594:	24440001 	addiu	a0,v0,1
9d008598:	ae030004 	sw	v1,4(s0)
9d00859c:	a0510000 	sb	s1,0(v0)
9d0085a0:	24030001 	li	v1,1
9d0085a4:	3c02a000 	lui	v0,0xa000
9d0085a8:	ae040000 	sw	a0,0(s0)
9d0085ac:	a0430084 	sb	v1,132(v0)
9d0085b0:	2402000a 	li	v0,10
9d0085b4:	52220021 	beql	s1,v0,9d00863c <fputc+0x100>
9d0085b8:	9602000c 	lhu	v0,12(s0)
9d0085bc:	8fbf001c 	lw	ra,28(sp)
9d0085c0:	02201021 	move	v0,s1
9d0085c4:	8fb00014 	lw	s0,20(sp)
9d0085c8:	8fb10018 	lw	s1,24(sp)
9d0085cc:	03e00008 	jr	ra
9d0085d0:	27bd0020 	addiu	sp,sp,32
9d0085d4:	1460000b 	bnez	v1,9d008604 <fputc+0xc8>
9d0085d8:	34420200 	ori	v0,v0,0x200
9d0085dc:	a4a2000c 	sh	v0,12(a1)
9d0085e0:	309100ff 	andi	s1,a0,0xff
9d0085e4:	00001821 	move	v1,zero
9d0085e8:	8e040008 	lw	a0,8(s0)
9d0085ec:	ae040000 	sw	a0,0(s0)
9d0085f0:	2404000a 	li	a0,10
9d0085f4:	5624ffe4 	bnel	s1,a0,9d008588 <fputc+0x4c>
9d0085f8:	8e020010 	lw	v0,16(s0)
9d0085fc:	0b402188 	j	9d008620 <fputc+0xe4>
9d008600:	30420080 	andi	v0,v0,0x80
9d008604:	8fbf001c 	lw	ra,28(sp)
9d008608:	2411ffff 	li	s1,-1
9d00860c:	02201021 	move	v0,s1
9d008610:	8fb00014 	lw	s0,20(sp)
9d008614:	8fb10018 	lw	s1,24(sp)
9d008618:	03e00008 	jr	ra
9d00861c:	27bd0020 	addiu	sp,sp,32
9d008620:	5440ffd9 	bnezl	v0,9d008588 <fputc+0x4c>
9d008624:	8e020010 	lw	v0,16(s0)
9d008628:	2404000d 	li	a0,13
9d00862c:	0f40214f 	jal	9d00853c <fputc>
9d008630:	02002821 	move	a1,s0
9d008634:	0b402161 	j	9d008584 <fputc+0x48>
9d008638:	8e030004 	lw	v1,4(s0)
9d00863c:	30420100 	andi	v0,v0,0x100
9d008640:	1040ffdf 	beqz	v0,9d0085c0 <fputc+0x84>
9d008644:	8fbf001c 	lw	ra,28(sp)
9d008648:	9604000e 	lhu	a0,14(s0)
9d00864c:	8e050008 	lw	a1,8(s0)
9d008650:	0f402552 	jal	9d009548 <.LFE0>
9d008654:	8e060004 	lw	a2,4(s0)
9d008658:	8e030004 	lw	v1,4(s0)
9d00865c:	50430006 	beql	v0,v1,9d008678 <fputc+0x13c>
9d008660:	8e020008 	lw	v0,8(s0)
9d008664:	9602000c 	lhu	v0,12(s0)
9d008668:	2411ffff 	li	s1,-1
9d00866c:	34420030 	ori	v0,v0,0x30
9d008670:	a602000c 	sh	v0,12(s0)
9d008674:	8e020008 	lw	v0,8(s0)
9d008678:	ae000004 	sw	zero,4(s0)
9d00867c:	0b40216f 	j	9d0085bc <fputc+0x80>
9d008680:	ae020000 	sw	v0,0(s0)
9d008684:	7c112420 	seb	a0,s1
9d008688:	0f4021f8 	jal	9d0087e0 <.LFE6>
9d00868c:	02002821 	move	a1,s0
9d008690:	0b40216f 	j	9d0085bc <fputc+0x80>
9d008694:	00408821 	move	s1,v0

Disassembly of section .text:

9d008698 <encoder_command>:
#include "encoder.h"
#include <xc.h>

static int encoder_command(int read) { // send  a command to the encoder chip
  SPI4BUF = read;                 // send the command
9d008698:	3c02bf80 	lui	v0,0xbf80
9d00869c:	ac445c20 	sw	a0,23584(v0)

  while (!SPI4STATbits.SPIRBF) { ; } // wait for the response
9d0086a0:	3c03bf80 	lui	v1,0xbf80
9d0086a4:	8c625c10 	lw	v0,23568(v1)
9d0086a8:	30420001 	andi	v0,v0,0x1
9d0086ac:	1040fffd 	beqz	v0,9d0086a4 <encoder_command+0xc>
9d0086b0:	3c02bf80 	lui	v0,0xbf80
  
  SPI4BUF;                        // garbage was transfered over, ignore it
9d0086b4:	8c435c20 	lw	v1,23584(v0)
  SPI4BUF = 5;                    // write garbage, but the corresponding read will have the data
9d0086b8:	24030005 	li	v1,5
9d0086bc:	ac435c20 	sw	v1,23584(v0)
 
  while (!SPI4STATbits.SPIRBF) { ; }
9d0086c0:	3c03bf80 	lui	v1,0xbf80
9d0086c4:	8c625c10 	lw	v0,23568(v1)
9d0086c8:	30420001 	andi	v0,v0,0x1
9d0086cc:	1040fffd 	beqz	v0,9d0086c4 <encoder_command+0x2c>
9d0086d0:	3c02bf80 	lui	v0,0xbf80

  return SPI4BUF;
9d0086d4:	8c425c20 	lw	v0,23584(v0)
}
9d0086d8:	03e00008 	jr	ra
9d0086dc:	00000000 	nop

9d0086e0 <encoder_init>:

void encoder_init(void) {
  // SPI initialization for reading from the encoder chip
  SPI4CON = 0; 		          // stop and reset SPI4
9d0086e0:	3c02bf80 	lui	v0,0xbf80
9d0086e4:	ac405c00 	sw	zero,23552(v0)
  SPI4BUF;		          // read to clear the rx buffer
9d0086e8:	3c02bf80 	lui	v0,0xbf80
9d0086ec:	8c425c20 	lw	v0,23584(v0)
  SPI4BRG = 0x4; 	          // bit rate to 8MHz, SPI4BRG = 80000000/(2*desired)-1
9d0086f0:	24030004 	li	v1,4
9d0086f4:	3c02bf80 	lui	v0,0xbf80
9d0086f8:	ac435c30 	sw	v1,23600(v0)
  SPI4STATbits.SPIROV = 0;  // clear the overflow
9d0086fc:	3c02bf80 	lui	v0,0xbf80
9d008700:	8c435c10 	lw	v1,23568(v0)
9d008704:	7c033184 	ins	v1,zero,0x6,0x1
9d008708:	ac435c10 	sw	v1,23568(v0)
  SPI4CONbits.MSTEN = 1;    // master mode
9d00870c:	3c02bf80 	lui	v0,0xbf80
9d008710:	8c445c00 	lw	a0,23552(v0)
9d008714:	24030001 	li	v1,1
9d008718:	7c642944 	ins	a0,v1,0x5,0x1
9d00871c:	ac445c00 	sw	a0,23552(v0)
  SPI4CONbits.MSSEN = 1;    // Slave select enable
9d008720:	8c445c00 	lw	a0,23552(v0)
9d008724:	7c64e704 	ins	a0,v1,0x1c,0x1
9d008728:	ac445c00 	sw	a0,23552(v0)
  SPI4CONbits.MODE16 = 1;   // 16 bit mode
9d00872c:	8c445c00 	lw	a0,23552(v0)
9d008730:	7c645284 	ins	a0,v1,0xa,0x1
9d008734:	ac445c00 	sw	a0,23552(v0)
  SPI4CONbits.MODE32 = 0; 
9d008738:	8c445c00 	lw	a0,23552(v0)
9d00873c:	7c045ac4 	ins	a0,zero,0xb,0x1
9d008740:	ac445c00 	sw	a0,23552(v0)
  SPI4CONbits.SMP = 1;      // sample at the end of the clock
9d008744:	8c445c00 	lw	a0,23552(v0)
9d008748:	7c644a44 	ins	a0,v1,0x9,0x1
9d00874c:	ac445c00 	sw	a0,23552(v0)
  SPI4CONbits.ON = 1;       // turn spi on
9d008750:	8c445c00 	lw	a0,23552(v0)
9d008754:	7c647bc4 	ins	a0,v1,0xf,0x1
9d008758:	ac445c00 	sw	a0,23552(v0)
}
9d00875c:	03e00008 	jr	ra
9d008760:	00000000 	nop

9d008764 <encoder_ticks>:

int encoder_ticks(void) {
9d008764:	27bdffe8 	addiu	sp,sp,-24
9d008768:	afbf0014 	sw	ra,20(sp)
  encoder_command(0x01);	        // we need to read twice to get a valid reading
9d00876c:	0f4021a6 	jal	9d008698 <encoder_command>
9d008770:	24040001 	li	a0,1
  return encoder_command(0x01);
9d008774:	0f4021a6 	jal	9d008698 <encoder_command>
9d008778:	24040001 	li	a0,1
}
9d00877c:	8fbf0014 	lw	ra,20(sp)
9d008780:	03e00008 	jr	ra
9d008784:	27bd0018 	addiu	sp,sp,24

9d008788 <encoder_reset>:

void encoder_reset(void){        // reset the encoder position
9d008788:	27bdffe8 	addiu	sp,sp,-24
9d00878c:	afbf0014 	sw	ra,20(sp)
  encoder_command(0x00);
9d008790:	0f4021a6 	jal	9d008698 <encoder_command>
9d008794:	00002021 	move	a0,zero
}
9d008798:	8fbf0014 	lw	ra,20(sp)
9d00879c:	03e00008 	jr	ra
9d0087a0:	27bd0018 	addiu	sp,sp,24

9d0087a4 <encoder_angle>:

int encoder_angle(void){          // read the encoder angle, in tenths of a degree
9d0087a4:	27bdffe8 	addiu	sp,sp,-24
9d0087a8:	afbf0014 	sw	ra,20(sp)
  int angle = 0;
   angle = (encoder_ticks()-32768)*2.69;  // subtract off zero angle
9d0087ac:	0f4021d9 	jal	9d008764 <encoder_ticks>
9d0087b0:	00000000 	nop
9d0087b4:	0f402649 	jal	9d009924 <__floatsisf>
9d0087b8:	24448000 	addiu	a0,v0,-32768
9d0087bc:	00402021 	move	a0,v0
9d0087c0:	3c029d01 	lui	v0,0x9d01
9d0087c4:	0f401fb6 	jal	9d007ed8 <__mulsf3>
9d0087c8:	8c459ff0 	lw	a1,-24592(v0)
9d0087cc:	0f402599 	jal	9d009664 <__fixsfsi>
9d0087d0:	00402021 	move	a0,v0
                                  // and account for the 3600/1336=2.69decidegrees resolution
  return angle;
}
9d0087d4:	8fbf0014 	lw	ra,20(sp)
9d0087d8:	03e00008 	jr	ra
9d0087dc:	27bd0018 	addiu	sp,sp,24

Disassembly of section .text._flsbuf:

9d0087e0 <_flsbuf>:
9d0087e0:	94a2000c 	lhu	v0,12(a1)
9d0087e4:	27bdffe8 	addiu	sp,sp,-24
9d0087e8:	30430040 	andi	v1,v0,0x40
9d0087ec:	afb00010 	sw	s0,16(sp)
9d0087f0:	afbf0014 	sw	ra,20(sp)
9d0087f4:	00a08021 	move	s0,a1
9d0087f8:	1460001c 	bnez	v1,9d00886c <_flsbuf+0x8c>
9d0087fc:	a3a40018 	sb	a0,24(sp)
9d008800:	30430002 	andi	v1,v0,0x2
9d008804:	5060003d 	beqzl	v1,9d0088fc <_flsbuf+0x11c>
9d008808:	34420030 	ori	v0,v0,0x30
9d00880c:	8ca30010 	lw	v1,16(a1)
9d008810:	5060001b 	beqzl	v1,9d008880 <_flsbuf+0xa0>
9d008814:	94a4000e 	lhu	a0,14(a1)
9d008818:	8ca50008 	lw	a1,8(a1)
9d00881c:	50a0002d 	beqzl	a1,9d0088d4 <_flsbuf+0xf4>
9d008820:	3c05a000 	lui	a1,0xa000
9d008824:	8e060004 	lw	a2,4(s0)
9d008828:	0f402552 	jal	9d009548 <.LFE0>
9d00882c:	9604000e 	lhu	a0,14(s0)
9d008830:	2402ffff 	li	v0,-1
9d008834:	8e030008 	lw	v1,8(s0)
9d008838:	ae020004 	sw	v0,4(s0)
9d00883c:	93a20018 	lbu	v0,24(sp)
9d008840:	a0620000 	sb	v0,0(v1)
9d008844:	83a20018 	lb	v0,24(sp)
9d008848:	24630001 	addiu	v1,v1,1
9d00884c:	ae030000 	sw	v1,0(s0)
9d008850:	2403000a 	li	v1,10
9d008854:	50430013 	beql	v0,v1,9d0088a4 <_flsbuf+0xc4>
9d008858:	9603000c 	lhu	v1,12(s0)
9d00885c:	8fbf0014 	lw	ra,20(sp)
9d008860:	8fb00010 	lw	s0,16(sp)
9d008864:	03e00008 	jr	ra
9d008868:	27bd0018 	addiu	sp,sp,24
9d00886c:	8fbf0014 	lw	ra,20(sp)
9d008870:	7c041420 	seb	v0,a0
9d008874:	8fb00010 	lw	s0,16(sp)
9d008878:	03e00008 	jr	ra
9d00887c:	27bd0018 	addiu	sp,sp,24
9d008880:	24060001 	li	a2,1
9d008884:	0f402552 	jal	9d009548 <.LFE0>
9d008888:	27a50018 	addiu	a1,sp,24
9d00888c:	8fbf0014 	lw	ra,20(sp)
9d008890:	83a20018 	lb	v0,24(sp)
9d008894:	ae000004 	sw	zero,4(s0)
9d008898:	8fb00010 	lw	s0,16(sp)
9d00889c:	03e00008 	jr	ra
9d0088a0:	27bd0018 	addiu	sp,sp,24
9d0088a4:	30630100 	andi	v1,v1,0x100
9d0088a8:	1060ffed 	beqz	v1,9d008860 <_flsbuf+0x80>
9d0088ac:	8fbf0014 	lw	ra,20(sp)
9d0088b0:	9604000e 	lhu	a0,14(s0)
9d0088b4:	8e050008 	lw	a1,8(s0)
9d0088b8:	0f402552 	jal	9d009548 <.LFE0>
9d0088bc:	8e060004 	lw	a2,4(s0)
9d0088c0:	8e030008 	lw	v1,8(s0)
9d0088c4:	83a20018 	lb	v0,24(sp)
9d0088c8:	ae000004 	sw	zero,4(s0)
9d0088cc:	0b402217 	j	9d00885c <_flsbuf+0x7c>
9d0088d0:	ae030000 	sw	v1,0(s0)
9d0088d4:	24a57e64 	addiu	a1,a1,32356
9d0088d8:	24030020 	li	v1,32
9d0088dc:	34420008 	ori	v0,v0,0x8
9d0088e0:	ae050008 	sw	a1,8(s0)
9d0088e4:	ae050000 	sw	a1,0(s0)
9d0088e8:	ae030010 	sw	v1,16(s0)
9d0088ec:	ae030004 	sw	v1,4(s0)
9d0088f0:	a602000c 	sh	v0,12(s0)
9d0088f4:	0b40220a 	j	9d008828 <_flsbuf+0x48>
9d0088f8:	24060020 	li	a2,32
9d0088fc:	a4a2000c 	sh	v0,12(a1)
9d008900:	aca00004 	sw	zero,4(a1)
9d008904:	0b402217 	j	9d00885c <_flsbuf+0x7c>
9d008908:	2402ffff 	li	v0,-1

Disassembly of section .text:

9d00890c <isense_init>:
#include <math.h>



void isense_init(void){
  AD1PCFGbits.PCFG14 = 0;                 // AN14 is an adc pin
9d00890c:	3c02bf81 	lui	v0,0xbf81
9d008910:	8c439060 	lw	v1,-28576(v0)
9d008914:	7c037384 	ins	v1,zero,0xe,0x1
9d008918:	ac439060 	sw	v1,-28576(v0)
  AD1CON3bits.ADCS = 2;                   // ADC clock period is Tad = 2*(ADCS+1)*Tpb =
9d00891c:	24030002 	li	v1,2
9d008920:	3c02bf81 	lui	v0,0xbf81
9d008924:	a0439020 	sb	v1,-28640(v0)
                                          //                           2*3*12.5ns = 75ns
  AD1CON1bits.ADON = 1;                   // turn on A/D converter
9d008928:	3c02bf81 	lui	v0,0xbf81
9d00892c:	8c439000 	lw	v1,-28672(v0)
9d008930:	24040001 	li	a0,1
9d008934:	7c837bc4 	ins	v1,a0,0xf,0x1
9d008938:	ac439000 	sw	v1,-28672(v0)
}
9d00893c:	03e00008 	jr	ra
9d008940:	00000000 	nop

9d008944 <isense_ticks>:
    }
    return ADC1BUF0;                      // read the buffer with the result
}


short isense_ticks(void){    //read the current sensor, in ADC ticks
9d008944:	24060063 	li	a2,99
 int sampsum=0, sample=0, i;  
9d008948:	00001821 	move	v1,zero

9d00894c <.LBB4>:
}

//****internal helper function to read a single value from ADC pin
static unsigned int adc_sample(void) { // sample and convert the value on the given adc pin
    unsigned int elapsed = 0, finish_time = 0;
    AD1CHSbits.CH0SA = 14;                // connect pin AN14 to MUXA for sampling
9d00894c:	3c07bf81 	lui	a3,0xbf81
9d008950:	240a000e 	li	t2,14
    AD1CON1bits.SAMP = 1;                  // start sampling
9d008954:	3c04bf81 	lui	a0,0xbf81
9d008958:	24090001 	li	t1,1
    }
    AD1CON1bits.SAMP = 0;                 // stop sampling and start converting
    while (!AD1CON1bits.DONE) {
      ;                                   // wait for the conversion process to finish
    }
    return ADC1BUF0;                      // read the buffer with the result
9d00895c:	3c08bf81 	lui	t0,0xbf81
}

//****internal helper function to read a single value from ADC pin
static unsigned int adc_sample(void) { // sample and convert the value on the given adc pin
    unsigned int elapsed = 0, finish_time = 0;
    AD1CHSbits.CH0SA = 14;                // connect pin AN14 to MUXA for sampling
9d008960:	8ce29040 	lw	v0,-28608(a3)
9d008964:	7d429c04 	ins	v0,t2,0x10,0x4
9d008968:	ace29040 	sw	v0,-28608(a3)
    AD1CON1bits.SAMP = 1;                  // start sampling
9d00896c:	8c829000 	lw	v0,-28672(a0)
9d008970:	7d220844 	ins	v0,t1,0x1,0x1
9d008974:	ac829000 	sw	v0,-28672(a0)
    elapsed = _CP0_GET_COUNT();
9d008978:	40054800 	mfc0	a1,c0_count
    finish_time = elapsed + SAMPLE_TIME;
9d00897c:	24a5000a 	addiu	a1,a1,10
    while (_CP0_GET_COUNT() < finish_time) { 
9d008980:	40024800 	mfc0	v0,c0_count
9d008984:	0045102b 	sltu	v0,v0,a1
9d008988:	1440fffd 	bnez	v0,9d008980 <.LBB4+0x34>
9d00898c:	00000000 	nop
      ;                                   // sample for more than 250 ns
    }
    AD1CON1bits.SAMP = 0;                 // stop sampling and start converting
9d008990:	8c829000 	lw	v0,-28672(a0)
9d008994:	7c020844 	ins	v0,zero,0x1,0x1
9d008998:	ac829000 	sw	v0,-28672(a0)
    while (!AD1CON1bits.DONE) {
9d00899c:	8c829000 	lw	v0,-28672(a0)
9d0089a0:	30420001 	andi	v0,v0,0x1
9d0089a4:	1040fffd 	beqz	v0,9d00899c <.LBB4+0x50>
9d0089a8:	00000000 	nop
      ;                                   // wait for the conversion process to finish
    }
    return ADC1BUF0;                      // read the buffer with the result
9d0089ac:	8d029070 	lw	v0,-28560(t0)

9d0089b0 <.LBE4>:


short isense_ticks(void){    //read the current sensor, in ADC ticks
 int sampsum=0, sample=0, i;  
 for(i=1; i<100; i++){
     sampsum=sampsum + adc_sample();  //read the adc pin 100 times
9d0089b0:	24c6ffff 	addiu	a2,a2,-1
}


short isense_ticks(void){    //read the current sensor, in ADC ticks
 int sampsum=0, sample=0, i;  
 for(i=1; i<100; i++){
9d0089b4:	14c0ffea 	bnez	a2,9d008960 <.LBB4+0x14>
9d0089b8:	00621821 	addu	v1,v1,v0
     sampsum=sampsum + adc_sample();  //read the adc pin 100 times
   }
 sample=sampsum/100;                   //take the average and return as the read value
9d0089bc:	24020064 	li	v0,100
9d0089c0:	0062001a 	div	zero,v1,v0
9d0089c4:	004001f4 	teq	v0,zero,0x7
9d0089c8:	00001012 	mflo	v0
return sample;
}
9d0089cc:	03e00008 	jr	ra
9d0089d0:	7c021620 	seh	v0,v0

9d0089d4 <isense_amps>:

int isense_amps(void){    //read current sensor and convert to mA
9d0089d4:	27bdffe8 	addiu	sp,sp,-24
9d0089d8:	afbf0014 	sw	ra,20(sp)
  int adc_val=0, amp_val=0;
  adc_val=isense_ticks();
9d0089dc:	0f402251 	jal	9d008944 <isense_ticks>
9d0089e0:	00000000 	nop
  amp_val=(2.0*adc_val)-1002;  //conversion from ticks to miliamps based on linear regression
9d0089e4:	0f402649 	jal	9d009924 <__floatsisf>
9d0089e8:	00402021 	move	a0,v0
9d0089ec:	00402021 	move	a0,v0
9d0089f0:	0f401d21 	jal	9d007484 <__addsf3>
9d0089f4:	00402821 	move	a1,v0
9d0089f8:	00402021 	move	a0,v0
9d0089fc:	3c029d01 	lui	v0,0x9d01
9d008a00:	0f401d1f 	jal	9d00747c <.LFE1>
9d008a04:	8c459ff4 	lw	a1,-24588(v0)
9d008a08:	0f402599 	jal	9d009664 <__fixsfsi>
9d008a0c:	00402021 	move	a0,v0

return amp_val;

}
9d008a10:	8fbf0014 	lw	ra,20(sp)
9d008a14:	03e00008 	jr	ra
9d008a18:	27bd0018 	addiu	sp,sp,24

Disassembly of section .text.fgetc:

9d008a1c <fgetc>:
9d008a1c:	9483000c 	lhu	v1,12(a0)
9d008a20:	27bdffe0 	addiu	sp,sp,-32
9d008a24:	afb00010 	sw	s0,16(sp)
9d008a28:	24020001 	li	v0,1
9d008a2c:	00808021 	move	s0,a0
9d008a30:	30640011 	andi	a0,v1,0x11
9d008a34:	afbf001c 	sw	ra,28(sp)
9d008a38:	afb20018 	sw	s2,24(sp)
9d008a3c:	14820030 	bne	a0,v0,9d008b00 <fgetc+0xe4>
9d008a40:	afb10014 	sw	s1,20(sp)
9d008a44:	30620200 	andi	v0,v1,0x200
9d008a48:	14400018 	bnez	v0,9d008aac <fgetc+0x90>
9d008a4c:	8e020004 	lw	v0,4(s0)
9d008a50:	3063fdff 	andi	v1,v1,0xfdff
9d008a54:	a603000c 	sh	v1,12(s0)
9d008a58:	2411001a 	li	s1,26
9d008a5c:	2412000d 	li	s2,13
9d008a60:	18400018 	blez	v0,9d008ac4 <fgetc+0xa8>
9d008a64:	2444ffff 	addiu	a0,v0,-1
9d008a68:	8e020000 	lw	v0,0(s0)
9d008a6c:	ae040004 	sw	a0,4(s0)
9d008a70:	24440001 	addiu	a0,v0,1
9d008a74:	90420000 	lbu	v0,0(v0)
9d008a78:	ae040000 	sw	a0,0(s0)
9d008a7c:	30640080 	andi	a0,v1,0x80
9d008a80:	14800005 	bnez	a0,9d008a98 <fgetc+0x7c>
9d008a84:	8fbf001c 	lw	ra,28(sp)
9d008a88:	50510015 	beql	v0,s1,9d008ae0 <fgetc+0xc4>
9d008a8c:	8e020008 	lw	v0,8(s0)
9d008a90:	5052000a 	beql	v0,s2,9d008abc <fgetc+0xa0>
9d008a94:	8e020004 	lw	v0,4(s0)
9d008a98:	8fb20018 	lw	s2,24(sp)
9d008a9c:	8fb10014 	lw	s1,20(sp)
9d008aa0:	8fb00010 	lw	s0,16(sp)
9d008aa4:	03e00008 	jr	ra
9d008aa8:	27bd0020 	addiu	sp,sp,32
9d008aac:	14400014 	bnez	v0,9d008b00 <fgetc+0xe4>
9d008ab0:	00001021 	move	v0,zero
9d008ab4:	0b402295 	j	9d008a54 <fgetc+0x38>
9d008ab8:	3063fdff 	andi	v1,v1,0xfdff
9d008abc:	1c40ffea 	bgtz	v0,9d008a68 <fgetc+0x4c>
9d008ac0:	2444ffff 	addiu	a0,v0,-1
9d008ac4:	30620040 	andi	v0,v1,0x40
9d008ac8:	1440000d 	bnez	v0,9d008b00 <fgetc+0xe4>
9d008acc:	02002021 	move	a0,s0
9d008ad0:	0f402090 	jal	9d008240 <.LFE7>
9d008ad4:	00000000 	nop
9d008ad8:	0b40229f 	j	9d008a7c <fgetc+0x60>
9d008adc:	9603000c 	lhu	v1,12(s0)
9d008ae0:	10400008 	beqz	v0,9d008b04 <fgetc+0xe8>
9d008ae4:	8fbf001c 	lw	ra,28(sp)
9d008ae8:	8e040004 	lw	a0,4(s0)
9d008aec:	8e020000 	lw	v0,0(s0)
9d008af0:	24840001 	addiu	a0,a0,1
9d008af4:	2442ffff 	addiu	v0,v0,-1
9d008af8:	ae040004 	sw	a0,4(s0)
9d008afc:	ae020000 	sw	v0,0(s0)
9d008b00:	8fbf001c 	lw	ra,28(sp)
9d008b04:	34630010 	ori	v1,v1,0x10
9d008b08:	a603000c 	sh	v1,12(s0)
9d008b0c:	2402ffff 	li	v0,-1
9d008b10:	8fb20018 	lw	s2,24(sp)
9d008b14:	8fb10014 	lw	s1,20(sp)
9d008b18:	8fb00010 	lw	s0,16(sp)
9d008b1c:	03e00008 	jr	ra
9d008b20:	27bd0020 	addiu	sp,sp,32

Disassembly of section .rodata:

9d008b24 <_ctype>:
9d008b24:	20202000 20202020 28282020 20282828     .         ((((( 
9d008b34:	20202020 20202020 20202020 20202020                     
9d008b44:	10108020 10101010 10101010 10101010      ...............
9d008b54:	04040410 04040404 10040404 10101010     ................
9d008b64:	41411010 41414141 01010101 01010101     ..AAAAAA........
9d008b74:	01010101 01010101 01010101 10101010     ................
9d008b84:	42421010 42424242 02020202 02020202     ..BBBBBB........
9d008b94:	02020202 02020202 02020202 10101010     ................
9d008ba4:	00000020 00000000 00000000 00000000      ...............
	...

Disassembly of section .text.__ldexpf:

9d008c28 <__ldexpf>:
9d008c28:	7c833dc0 	ext	v1,a0,0x17,0x8
9d008c2c:	00801021 	move	v0,a0
9d008c30:	2464ffff 	addiu	a0,v1,-1
9d008c34:	2c8400fe 	sltiu	a0,a0,254
9d008c38:	00023fc2 	srl	a3,v0,0x1f
9d008c3c:	1080002d 	beqz	a0,9d008cf4 <__ldexpf+0xcc>
9d008c40:	7c46b000 	ext	a2,v0,0x0,0x17
9d008c44:	3c020080 	lui	v0,0x80
9d008c48:	2463ff81 	addiu	v1,v1,-127
9d008c4c:	00c21025 	or	v0,a2,v0
9d008c50:	24a5007f 	addiu	a1,a1,127
9d008c54:	00a31821 	addu	v1,a1,v1
9d008c58:	1860001a 	blez	v1,9d008cc4 <__ldexpf+0x9c>
9d008c5c:	000210c0 	sll	v0,v0,0x3
9d008c60:	30440007 	andi	a0,v0,0x7
9d008c64:	1480000f 	bnez	a0,9d008ca4 <__ldexpf+0x7c>
9d008c68:	7c4400c0 	ext	a0,v0,0x3,0x1
9d008c6c:	286400ff 	slti	a0,v1,255
9d008c70:	50800029 	beqzl	a0,9d008d18 <__ldexpf+0xf0>
9d008c74:	00071200 	sll	v0,a3,0x8
9d008c78:	000210c2 	srl	v0,v0,0x3
9d008c7c:	7c4405c0 	ext	a0,v0,0x17,0x1
9d008c80:	50800002 	beqzl	a0,9d008c8c <__ldexpf+0x64>
9d008c84:	00001821 	move	v1,zero
9d008c88:	7c42b000 	ext	v0,v0,0x0,0x17
9d008c8c:	00073a00 	sll	a3,a3,0x8
9d008c90:	00671825 	or	v1,v1,a3
9d008c94:	00031dc0 	sll	v1,v1,0x17
9d008c98:	00621025 	or	v0,v1,v0
9d008c9c:	03e00008 	jr	ra
9d008ca0:	00000000 	nop
9d008ca4:	24420003 	addiu	v0,v0,3
9d008ca8:	00441021 	addu	v0,v0,a0
9d008cac:	000226c2 	srl	a0,v0,0x1b
9d008cb0:	1080ffef 	beqz	a0,9d008c70 <__ldexpf+0x48>
9d008cb4:	286400ff 	slti	a0,v1,255
9d008cb8:	00021042 	srl	v0,v0,0x1
9d008cbc:	0b40231b 	j	9d008c6c <__ldexpf+0x44>
9d008cc0:	24630001 	addiu	v1,v1,1
9d008cc4:	24040001 	li	a0,1
9d008cc8:	00831823 	subu	v1,a0,v1
9d008ccc:	2864001b 	slti	a0,v1,27
9d008cd0:	50800014 	beqzl	a0,9d008d24 <__ldexpf+0xfc>
9d008cd4:	00001021 	move	v0,zero
9d008cd8:	00032023 	negu	a0,v1
9d008cdc:	00822004 	sllv	a0,v0,a0
9d008ce0:	00621806 	srlv	v1,v0,v1
9d008ce4:	0004102b 	sltu	v0,zero,a0
9d008ce8:	00431025 	or	v0,v0,v1
9d008cec:	0b402318 	j	9d008c60 <__ldexpf+0x38>
9d008cf0:	24030001 	li	v1,1
9d008cf4:	1460ffe9 	bnez	v1,9d008c9c <__ldexpf+0x74>
9d008cf8:	00000000 	nop
9d008cfc:	10c0ffe7 	beqz	a2,9d008c9c <__ldexpf+0x74>
9d008d00:	70c31820 	clz	v1,a2
9d008d04:	2463fff8 	addiu	v1,v1,-8
9d008d08:	2404ff82 	li	a0,-126
9d008d0c:	00661004 	sllv	v0,a2,v1
9d008d10:	0b402314 	j	9d008c50 <__ldexpf+0x28>
9d008d14:	00831823 	subu	v1,a0,v1
9d008d18:	344200ff 	ori	v0,v0,0xff
9d008d1c:	03e00008 	jr	ra
9d008d20:	000215c0 	sll	v0,v0,0x17
9d008d24:	0b402323 	j	9d008c8c <__ldexpf+0x64>
9d008d28:	00001821 	move	v1,zero

Disassembly of section .text.dptofp:

9d008d2c <__truncdfsf2>:
9d008d2c:	00053ac0 00045d42 00eb3825 000432c0     .:..B]..%8...2..
9d008d3c:	3c018000 00e13825 3c018000 00a14824     ...<%8.....<$H..
9d008d4c:	00054040 00084542 2508fc80 250bffff     @@..BE.....%...%
9d008d5c:	2d6100fe 10200012 00000000              ..a-.. .....

9d008d68 <Hlab1>:
9d008d68:	10c00002 	beqz	a2,9d008d74 <i45>
9d008d6c:	00000000 	nop
9d008d70:	34e70001 	ori	a3,a3,0x1

9d008d74 <i45>:
9d008d74:	24e70080 	addiu	a3,a3,128
9d008d78:	2ceb0080 	sltiu	t3,a3,128
9d008d7c:	010b4021 	addu	t0,t0,t3
9d008d80:	00075a02 	srl	t3,a3,0x8
9d008d84:	316b0001 	andi	t3,t3,0x1
9d008d88:	00eb3823 	subu	a3,a3,t3
9d008d8c:	00073840 	sll	a3,a3,0x1
9d008d90:	00073a42 	srl	a3,a3,0x9
9d008d94:	00085dc0 	sll	t3,t0,0x17
9d008d98:	00eb3825 	or	a3,a3,t3
9d008d9c:	00e91025 	or	v0,a3,t1

9d008da0 <H999>:
9d008da0:	03e00008 	jr	ra
9d008da4:	00000000 	nop
9d008da8:	00000000 	nop

9d008dac <Hspec>:
9d008dac:	2401047f 	li	at,1151
9d008db0:	15010007 	bne	t0,at,9d008dd0 <i46>
9d008db4:	00000000 	nop
9d008db8:	00075840 	sll	t3,a3,0x1
9d008dbc:	01665825 	or	t3,t3,a2
9d008dc0:	11600003 	beqz	t3,9d008dd0 <i46>
9d008dc4:	00000000 	nop
9d008dc8:	1000fff5 	b	9d008da0 <H999>
9d008dcc:	3c02ffc0 	lui	v0,0xffc0

9d008dd0 <i46>:
9d008dd0:	290100ff 	slti	at,t0,255
9d008dd4:	14200004 	bnez	at,9d008de8 <i48>
9d008dd8:	00000000 	nop
9d008ddc:	3c017f80 	lui	at,0x7f80
9d008de0:	1000ffef 	b	9d008da0 <H999>
9d008de4:	01211025 	or	v0,t1,at

9d008de8 <i48>:
9d008de8:	240a0001 	li	t2,1
9d008dec:	01485023 	subu	t2,t2,t0
9d008df0:	2d410020 	sltiu	at,t2,32
9d008df4:	14200003 	bnez	at,9d008e04 <i49>
9d008df8:	00000000 	nop
9d008dfc:	1000ffe8 	b	9d008da0 <H999>
9d008e00:	00091025 	or	v0,zero,t1

9d008e04 <i49>:
9d008e04:	240c0020 	li	t4,32
9d008e08:	018a6023 	subu	t4,t4,t2
9d008e0c:	01875804 	sllv	t3,a3,t4
9d008e10:	00cb3025 	or	a2,a2,t3
9d008e14:	01473806 	srlv	a3,a3,t2
9d008e18:	24080000 	li	t0,0
9d008e1c:	3c018000 	lui	at,0x8000
9d008e20:	1000ffd1 	b	9d008d68 <Hlab1>
9d008e24:	00e13825 	or	a3,a3,at
9d008e28:	00000000 	nop

Disassembly of section .text:

9d008e2c <__floatundisf>:
9d008e2c:	27bdffe0 	addiu	sp,sp,-32
9d008e30:	afbf001c 	sw	ra,28(sp)
9d008e34:	afb10018 	sw	s1,24(sp)
9d008e38:	afb00014 	sw	s0,20(sp)
9d008e3c:	10a0002d 	beqz	a1,9d008ef4 <__floatundisf+0xc8>
9d008e40:	00801021 	move	v0,a0
9d008e44:	70a63020 	clz	a2,a1
9d008e48:	24100020 	li	s0,32
9d008e4c:	02068023 	subu	s0,s0,a2
9d008e50:	00101827 	nor	v1,zero,s0
9d008e54:	00052040 	sll	a0,a1,0x1
9d008e58:	00642004 	sllv	a0,a0,v1
9d008e5c:	02021806 	srlv	v1,v0,s0
9d008e60:	00831825 	or	v1,a0,v1
9d008e64:	32070020 	andi	a3,s0,0x20
9d008e68:	02052006 	srlv	a0,a1,s0
9d008e6c:	00c21004 	sllv	v0,v0,a2
9d008e70:	14400014 	bnez	v0,9d008ec4 <__floatundisf+0x98>
9d008e74:	0067200a 	movz	a0,v1,a3
9d008e78:	0f4026b9 	jal	9d009ae4 <__floatunsisf>
9d008e7c:	00000000 	nop
9d008e80:	00408821 	move	s1,v0
9d008e84:	24020020 	li	v0,32
9d008e88:	12020015 	beq	s0,v0,9d008ee0 <__floatundisf+0xb4>
9d008e8c:	3c029d01 	lui	v0,0x9d01
9d008e90:	2402001f 	li	v0,31
9d008e94:	12020014 	beq	s0,v0,9d008ee8 <__floatundisf+0xbc>
9d008e98:	24040001 	li	a0,1
9d008e9c:	0f402649 	jal	9d009924 <__floatsisf>
9d008ea0:	02042004 	sllv	a0,a0,s0
9d008ea4:	00402821 	move	a1,v0
9d008ea8:	0f401fb6 	jal	9d007ed8 <__mulsf3>
9d008eac:	02202021 	move	a0,s1
9d008eb0:	8fbf001c 	lw	ra,28(sp)
9d008eb4:	8fb10018 	lw	s1,24(sp)
9d008eb8:	8fb00014 	lw	s0,20(sp)
9d008ebc:	03e00008 	jr	ra
9d008ec0:	27bd0020 	addiu	sp,sp,32
9d008ec4:	0f4026b9 	jal	9d009ae4 <__floatunsisf>
9d008ec8:	34840001 	ori	a0,a0,0x1
9d008ecc:	00408821 	move	s1,v0
9d008ed0:	24020020 	li	v0,32
9d008ed4:	1602ffef 	bne	s0,v0,9d008e94 <__floatundisf+0x68>
9d008ed8:	2402001f 	li	v0,31
9d008edc:	3c029d01 	lui	v0,0x9d01
9d008ee0:	0b4023aa 	j	9d008ea8 <__floatundisf+0x7c>
9d008ee4:	8c459fe8 	lw	a1,-24600(v0)
9d008ee8:	3c029d01 	lui	v0,0x9d01
9d008eec:	0b4023aa 	j	9d008ea8 <__floatundisf+0x7c>
9d008ef0:	8c459fec 	lw	a1,-24596(v0)
9d008ef4:	0f4026b9 	jal	9d009ae4 <__floatunsisf>
9d008ef8:	00000000 	nop
9d008efc:	8fbf001c 	lw	ra,28(sp)
9d008f00:	8fb10018 	lw	s1,24(sp)
9d008f04:	8fb00014 	lw	s0,20(sp)
9d008f08:	03e00008 	jr	ra
9d008f0c:	27bd0020 	addiu	sp,sp,32

Disassembly of section .rodata:

9d008f10 <dpowers-0x30>:
9d008f10:	6c756e28 	0x6c756e28
9d008f14:	0000296c 	0x296c
9d008f18:	33323130 	andi	s2,t9,0x3130
9d008f1c:	37363534 	ori	s6,t9,0x3534
9d008f20:	42413938 	c0	0x413938
9d008f24:	46454443 	c1	0x454443
9d008f28:	00000000 	nop
9d008f2c:	33323130 	andi	s2,t9,0x3130
9d008f30:	37363534 	ori	s6,t9,0x3534
9d008f34:	62613938 	0x62613938
9d008f38:	66656463 	0x66656463
9d008f3c:	00000000 	nop

9d008f40 <dpowers>:
9d008f40:	00000001 00000000 0000000a 00000000     ................
9d008f50:	00000064 00000000 000003e8 00000000     d...............
9d008f60:	00002710 00000000 000186a0 00000000     .'..............
9d008f70:	000f4240 00000000 00989680 00000000     @B..............
9d008f80:	05f5e100 00000000 3b9aca00 00000000     ...........;....
9d008f90:	540be400 00000002 4876e800 00000017     ...T......vH....
9d008fa0:	d4a51000 000000e8 4e72a000 00000918     ..........rN....
9d008fb0:	107a4000 00005af3 a4c68000 00038d7e     .@z..Z......~...
9d008fc0:	6fc10000 002386f2 5d8a0000 01634578     ...o..#....]xEc.
9d008fd0:	a7640000 0de0b6b3 89e80000 8ac72304     ..d..........#..
9d008fe0:	3f800000 41200000 3f000000 4089705f     ...?.. A...?_p.@

Disassembly of section .text.general_exception:

9d008ff0 <_general_exception_context>:
9d008ff0:	27bdffa8 	addiu	sp,sp,-88
9d008ff4:	afa10004 	sw	at,4(sp)
9d008ff8:	afa20008 	sw	v0,8(sp)
9d008ffc:	afa3000c 	sw	v1,12(sp)
9d009000:	afa40010 	sw	a0,16(sp)
9d009004:	afa50014 	sw	a1,20(sp)
9d009008:	afa60018 	sw	a2,24(sp)
9d00900c:	afa7001c 	sw	a3,28(sp)
9d009010:	afa80020 	sw	t0,32(sp)
9d009014:	afa90024 	sw	t1,36(sp)
9d009018:	afaa0028 	sw	t2,40(sp)
9d00901c:	afab002c 	sw	t3,44(sp)
9d009020:	afac0030 	sw	t4,48(sp)
9d009024:	afad0034 	sw	t5,52(sp)
9d009028:	afae0038 	sw	t6,56(sp)
9d00902c:	afaf003c 	sw	t7,60(sp)
9d009030:	afb80040 	sw	t8,64(sp)
9d009034:	afb90044 	sw	t9,68(sp)
9d009038:	afbf0048 	sw	ra,72(sp)
9d00903c:	00004012 	mflo	t0
9d009040:	afa8004c 	sw	t0,76(sp)
9d009044:	00004010 	mfhi	t0
9d009048:	afa80050 	sw	t0,80(sp)
9d00904c:	3c1a9d01 	lui	k0,0x9d01
9d009050:	275a9b78 	addiu	k0,k0,-25736
9d009054:	00000000 	nop
9d009058:	40046800 	mfc0	a0,c0_cause
9d00905c:	40056000 	mfc0	a1,c0_status
9d009060:	0340f809 	jalr	k0
9d009064:	00000000 	nop
9d009068:	8fa80050 	lw	t0,80(sp)
9d00906c:	01000011 	mthi	t0
9d009070:	8fa8004c 	lw	t0,76(sp)
9d009074:	01000013 	mtlo	t0
9d009078:	8fa10004 	lw	at,4(sp)
9d00907c:	8fa20008 	lw	v0,8(sp)
9d009080:	8fa3000c 	lw	v1,12(sp)
9d009084:	8fa40010 	lw	a0,16(sp)
9d009088:	8fa50014 	lw	a1,20(sp)
9d00908c:	8fa60018 	lw	a2,24(sp)
9d009090:	8fa7001c 	lw	a3,28(sp)
9d009094:	8fa80020 	lw	t0,32(sp)
9d009098:	8fa90024 	lw	t1,36(sp)
9d00909c:	8faa0028 	lw	t2,40(sp)
9d0090a0:	8fab002c 	lw	t3,44(sp)
9d0090a4:	8fac0030 	lw	t4,48(sp)
9d0090a8:	8fad0034 	lw	t5,52(sp)
9d0090ac:	8fae0038 	lw	t6,56(sp)
9d0090b0:	8faf003c 	lw	t7,60(sp)
9d0090b4:	8fb80040 	lw	t8,64(sp)
9d0090b8:	8fb90044 	lw	t9,68(sp)
9d0090bc:	8fbf0048 	lw	ra,72(sp)
9d0090c0:	27bd0058 	addiu	sp,sp,88
9d0090c4:	000000c0 	ehb
9d0090c8:	42000018 	eret

Disassembly of section .text._mon_putc:

9d0090cc <_mon_putc>:
9d0090cc:	3c02a000 	lui	v0,0xa000
9d0090d0:	8c42003c 	lw	v0,60(v0)
9d0090d4:	14400007 	bnez	v0,9d0090f4 <_mon_putc+0x28>
9d0090d8:	7c042420 	seb	a0,a0
9d0090dc:	3c020000 	lui	v0,0x0
9d0090e0:	24420000 	addiu	v0,v0,0
9d0090e4:	10400021 	beqz	v0,9d00916c <_mon_putc+0xa0>
9d0090e8:	3c020000 	lui	v0,0x0
9d0090ec:	08000000 	j	90000000 <_bmxdkpba_address+0x8ffe0000>
9d0090f0:	00000000 	nop
9d0090f4:	24030001 	li	v1,1
9d0090f8:	10430014 	beq	v0,v1,9d00914c <_mon_putc+0x80>
9d0090fc:	3c05bf80 	lui	a1,0xbf80
9d009100:	3c05bf80 	lui	a1,0xbf80
9d009104:	3c02bf80 	lui	v0,0xbf80
9d009108:	3c06bf80 	lui	a2,0xbf80
9d00910c:	3c03bf80 	lui	v1,0xbf80
9d009110:	24a56820 	addiu	a1,a1,26656
9d009114:	24426818 	addiu	v0,v0,26648
9d009118:	24c66808 	addiu	a2,a2,26632
9d00911c:	24636810 	addiu	v1,v1,26640
9d009120:	34078000 	li	a3,0x8000
9d009124:	acc70000 	sw	a3,0(a2)
9d009128:	24060400 	li	a2,1024
9d00912c:	ac460000 	sw	a2,0(v0)
9d009130:	8c620000 	lw	v0,0(v1)
9d009134:	30420100 	andi	v0,v0,0x100
9d009138:	1040fffd 	beqz	v0,9d009130 <_mon_putc+0x64>
9d00913c:	00000000 	nop
9d009140:	aca40000 	sw	a0,0(a1)
9d009144:	03e00008 	jr	ra
9d009148:	00000000 	nop
9d00914c:	3c02bf80 	lui	v0,0xbf80
9d009150:	3c06bf80 	lui	a2,0xbf80
9d009154:	3c03bf80 	lui	v1,0xbf80
9d009158:	24a56020 	addiu	a1,a1,24608
9d00915c:	24426018 	addiu	v0,v0,24600
9d009160:	24c66008 	addiu	a2,a2,24584
9d009164:	0b402448 	j	9d009120 <_mon_putc+0x54>
9d009168:	24636010 	addiu	v1,v1,24592
9d00916c:	24420000 	addiu	v0,v0,0
9d009170:	1040ffe4 	beqz	v0,9d009104 <_mon_putc+0x38>
9d009174:	3c05bf80 	lui	a1,0xbf80
9d009178:	08000000 	j	90000000 <_bmxdkpba_address+0x8ffe0000>
9d00917c:	00000000 	nop

Disassembly of section .text.atoi:

9d009180 <atoi>:
9d009180:	24020020 	li	v0,32
9d009184:	24050009 	li	a1,9
9d009188:	80830000 	lb	v1,0(a0)
9d00918c:	5062fffe 	beql	v1,v0,9d009188 <atoi+0x8>
9d009190:	24840001 	addiu	a0,a0,1
9d009194:	54650003 	bnel	v1,a1,9d0091a4 <atoi+0x24>
9d009198:	2402002d 	li	v0,45
9d00919c:	0b402462 	j	9d009188 <atoi+0x8>
9d0091a0:	24840001 	addiu	a0,a0,1
9d0091a4:	1062001a 	beq	v1,v0,9d009210 <atoi+0x90>
9d0091a8:	2402002b 	li	v0,43
9d0091ac:	5062001c 	beql	v1,v0,9d009220 <atoi+0xa0>
9d0091b0:	24840001 	addiu	a0,a0,1
9d0091b4:	00003821 	move	a3,zero
9d0091b8:	3c069d01 	lui	a2,0x9d01
9d0091bc:	24c68b24 	addiu	a2,a2,-29916
9d0091c0:	00c31021 	addu	v0,a2,v1
9d0091c4:	90420001 	lbu	v0,1(v0)
9d0091c8:	30420004 	andi	v0,v0,0x4
9d0091cc:	1040000c 	beqz	v0,9d009200 <atoi+0x80>
9d0091d0:	00001021 	move	v0,zero
9d0091d4:	00022840 	sll	a1,v0,0x1
9d0091d8:	000210c0 	sll	v0,v0,0x3
9d0091dc:	00a21021 	addu	v0,a1,v0
9d0091e0:	24840001 	addiu	a0,a0,1
9d0091e4:	00431021 	addu	v0,v0,v1
9d0091e8:	80830000 	lb	v1,0(a0)
9d0091ec:	00c32821 	addu	a1,a2,v1
9d0091f0:	90a50001 	lbu	a1,1(a1)
9d0091f4:	30a50004 	andi	a1,a1,0x4
9d0091f8:	14a0fff6 	bnez	a1,9d0091d4 <atoi+0x54>
9d0091fc:	2442ffd0 	addiu	v0,v0,-48
9d009200:	54e00001 	bnezl	a3,9d009208 <atoi+0x88>
9d009204:	00021023 	negu	v0,v0
9d009208:	03e00008 	jr	ra
9d00920c:	00000000 	nop
9d009210:	24840001 	addiu	a0,a0,1
9d009214:	80830000 	lb	v1,0(a0)
9d009218:	0b40246e 	j	9d0091b8 <atoi+0x38>
9d00921c:	24070001 	li	a3,1
9d009220:	80830000 	lb	v1,0(a0)
9d009224:	0b40246e 	j	9d0091b8 <atoi+0x38>
9d009228:	00003821 	move	a3,zero

Disassembly of section .text.fptodp:

9d00922c <__extendsfdf2>:
9d00922c:	00043dc2 30e700ff 3c018000 00813024     .=.....0...<$0..
9d00923c:	24e9ffff 2d2100fe 1020000d 00000000     ...$..!-.. .....

9d00924c <Glab1>:
9d00924c:	24e70380 	addiu	a3,a3,896
9d009250:	00044a40 	sll	t1,a0,0x9
9d009254:	00094b02 	srl	t1,t1,0xc
9d009258:	00c93025 	or	a2,a2,t1
9d00925c:	00042f40 	sll	a1,a0,0x1d

9d009260 <Gret>:
9d009260:	00074d00 	sll	t1,a3,0x14
9d009264:	00c93025 	or	a2,a2,t1
9d009268:	00051025 	or	v0,zero,a1
9d00926c:	00061825 	or	v1,zero,a2

9d009270 <G999>:
9d009270:	03e00008 	jr	ra
9d009274:	00000000 	nop
9d009278:	00000000 	nop

9d00927c <Gspec>:
9d00927c:	24050000 	li	a1,0
9d009280:	00842021 	addu	a0,a0,a0
9d009284:	1080fff6 	beqz	a0,9d009260 <Gret>
9d009288:	00000000 	nop
9d00928c:	14e00009 	bnez	a3,9d0092b4 <i42>
9d009290:	00000000 	nop

9d009294 <b43>:
9d009294:	24e7ffff 	addiu	a3,a3,-1
9d009298:	00842021 	addu	a0,a0,a0
9d00929c:	3c010080 	lui	at,0x80
9d0092a0:	0081082b 	sltu	at,a0,at
9d0092a4:	1420fffb 	bnez	at,9d009294 <b43>
9d0092a8:	00000000 	nop
9d0092ac:	1000ffe7 	b	9d00924c <Glab1>
9d0092b0:	00000000 	nop

9d0092b4 <i42>:
9d0092b4:	240707ff 	li	a3,2047
9d0092b8:	3c01ff00 	lui	at,0xff00
9d0092bc:	34210001 	ori	at,at,0x1
9d0092c0:	0081082b 	sltu	at,a0,at
9d0092c4:	1420ffe6 	bnez	at,9d009260 <Gret>
9d0092c8:	00000000 	nop
9d0092cc:	1000ffe4 	b	9d009260 <Gret>
9d0092d0:	3c06fff8 	lui	a2,0xfff8
9d0092d4:	00000000 	nop

Disassembly of section .text.range:

9d0092d8 <.text.range>:
9d0092d8:	27bdffe0 	addiu	sp,sp,-32
9d0092dc:	afb00018 	sw	s0,24(sp)
9d0092e0:	3c109d01 	lui	s0,0x9d01
9d0092e4:	26108b24 	addiu	s0,s0,-29916
9d0092e8:	00901821 	addu	v1,a0,s0
9d0092ec:	90630001 	lbu	v1,1(v1)
9d0092f0:	afbf001c 	sw	ra,28(sp)
9d0092f4:	30670004 	andi	a3,v1,0x4
9d0092f8:	10e00009 	beqz	a3,9d009320 <i42+0x6c>
9d0092fc:	00801021 	move	v0,a0
9d009300:	2482ffd0 	addiu	v0,a0,-48
9d009304:	0045282a 	slt	a1,v0,a1
9d009308:	10a00011 	beqz	a1,9d009350 <i42+0x9c>
9d00930c:	8fbf001c 	lw	ra,28(sp)
9d009310:	304200ff 	andi	v0,v0,0xff
9d009314:	8fb00018 	lw	s0,24(sp)
9d009318:	03e00008 	jr	ra
9d00931c:	27bd0020 	addiu	sp,sp,32
9d009320:	30670001 	andi	a3,v1,0x1
9d009324:	50e00004 	beqzl	a3,9d009338 <i42+0x84>
9d009328:	30630003 	andi	v1,v1,0x3
9d00932c:	14c0000c 	bnez	a2,9d009360 <i42+0xac>
9d009330:	00000000 	nop
9d009334:	30630003 	andi	v1,v1,0x3
9d009338:	10600004 	beqz	v1,9d00934c <i42+0x98>
9d00933c:	2442ffa9 	addiu	v0,v0,-87
9d009340:	0045282a 	slt	a1,v0,a1
9d009344:	14a0fff2 	bnez	a1,9d009310 <i42+0x5c>
9d009348:	8fbf001c 	lw	ra,28(sp)
9d00934c:	8fbf001c 	lw	ra,28(sp)
9d009350:	240200ff 	li	v0,255
9d009354:	8fb00018 	lw	s0,24(sp)
9d009358:	03e00008 	jr	ra
9d00935c:	27bd0020 	addiu	sp,sp,32
9d009360:	0f402750 	jal	9d009d40 <tolower>
9d009364:	afa50010 	sw	a1,16(sp)
9d009368:	00508021 	addu	s0,v0,s0
9d00936c:	92030001 	lbu	v1,1(s0)
9d009370:	0b4024cd 	j	9d009334 <i42+0x80>
9d009374:	8fa50010 	lw	a1,16(sp)
9d009378:	27bdffe0 	addiu	sp,sp,-32
9d00937c:	afb00018 	sw	s0,24(sp)
9d009380:	3c109d01 	lui	s0,0x9d01
9d009384:	26108b24 	addiu	s0,s0,-29916
9d009388:	00901821 	addu	v1,a0,s0
9d00938c:	90630001 	lbu	v1,1(v1)
9d009390:	afbf001c 	sw	ra,28(sp)
9d009394:	30670004 	andi	a3,v1,0x4
9d009398:	10e00009 	beqz	a3,9d0093c0 <i42+0x10c>
9d00939c:	00801021 	move	v0,a0
9d0093a0:	2482ffd0 	addiu	v0,a0,-48
9d0093a4:	0045282a 	slt	a1,v0,a1
9d0093a8:	10a00011 	beqz	a1,9d0093f0 <i42+0x13c>
9d0093ac:	8fbf001c 	lw	ra,28(sp)
9d0093b0:	304200ff 	andi	v0,v0,0xff
9d0093b4:	8fb00018 	lw	s0,24(sp)
9d0093b8:	03e00008 	jr	ra
9d0093bc:	27bd0020 	addiu	sp,sp,32
9d0093c0:	30670001 	andi	a3,v1,0x1
9d0093c4:	50e00004 	beqzl	a3,9d0093d8 <i42+0x124>
9d0093c8:	30630003 	andi	v1,v1,0x3
9d0093cc:	14c0000c 	bnez	a2,9d009400 <i42+0x14c>
9d0093d0:	00000000 	nop
9d0093d4:	30630003 	andi	v1,v1,0x3
9d0093d8:	10600004 	beqz	v1,9d0093ec <i42+0x138>
9d0093dc:	2442ffa9 	addiu	v0,v0,-87
9d0093e0:	0045282a 	slt	a1,v0,a1
9d0093e4:	14a0fff2 	bnez	a1,9d0093b0 <i42+0xfc>
9d0093e8:	8fbf001c 	lw	ra,28(sp)
9d0093ec:	8fbf001c 	lw	ra,28(sp)
9d0093f0:	240200ff 	li	v0,255
9d0093f4:	8fb00018 	lw	s0,24(sp)
9d0093f8:	03e00008 	jr	ra
9d0093fc:	27bd0020 	addiu	sp,sp,32
9d009400:	0f402750 	jal	9d009d40 <tolower>
9d009404:	afa50010 	sw	a1,16(sp)
9d009408:	00508021 	addu	s0,v0,s0
9d00940c:	92030001 	lbu	v1,1(s0)
9d009410:	0b4024f5 	j	9d0093d4 <i42+0x120>
9d009414:	8fa50010 	lw	a1,16(sp)

Disassembly of section .text.fpcmp:

9d009418 <__eqsf2>:
9d009418:	2408fffe 00043040 00053840 00c74825     ...$@0..@8..%H..
9d009428:	1120001b 00000000 3c01ff00 34210001     .. ........<..!4
9d009438:	00c1082b 1020001a 00000000 3c01ff00     +..... ........<
9d009448:	34210001 00e1082b 10200015 00000000     ..!4+..... .....
9d009458:	04810002 00063042 00063023              ....B0..#0..

9d009464 <i48>:
9d009464:	04a10002 	bgez	a1,9d009470 <i49>
9d009468:	00073842 	srl	a3,a3,0x1
9d00946c:	00073823 	negu	a3,a3

9d009470 <i49>:
9d009470:	00c7082a 	slt	at,a2,a3
9d009474:	10200003 	beqz	at,9d009484 <i50>
9d009478:	00000000 	nop
9d00947c:	10000007 	b	9d00949c <J999>
9d009480:	2402ffff 	li	v0,-1

9d009484 <i50>:
9d009484:	00e6082a 	slt	at,a3,a2
9d009488:	10200003 	beqz	at,9d009498 <Jequ>
9d00948c:	00000000 	nop
9d009490:	10000002 	b	9d00949c <J999>
9d009494:	24020001 	li	v0,1

9d009498 <Jequ>:
9d009498:	24020000 	li	v0,0

9d00949c <J999>:
9d00949c:	03e00008 	jr	ra
9d0094a0:	00000000 	nop
9d0094a4:	00000000 	nop

9d0094a8 <Jnan>:
9d0094a8:	1000fffc 	b	9d00949c <J999>
9d0094ac:	00081025 	or	v0,zero,t0
9d0094b0:	00000000 	nop

Disassembly of section .text.fflush:

9d0094b4 <fflush>:
9d0094b4:	9482000c 	lhu	v0,12(a0)
9d0094b8:	27bdffe8 	addiu	sp,sp,-24
9d0094bc:	afb00010 	sw	s0,16(sp)
9d0094c0:	24030001 	li	v1,1
9d0094c4:	00808021 	move	s0,a0
9d0094c8:	30440201 	andi	a0,v0,0x201
9d0094cc:	10830017 	beq	a0,v1,9d00952c <fflush+0x78>
9d0094d0:	afbf0014 	sw	ra,20(sp)
9d0094d4:	30420202 	andi	v0,v0,0x202
9d0094d8:	24030202 	li	v1,514
9d0094dc:	50430006 	beql	v0,v1,9d0094f8 <fflush+0x44>
9d0094e0:	8e050008 	lw	a1,8(s0)
9d0094e4:	00001021 	move	v0,zero
9d0094e8:	8fbf0014 	lw	ra,20(sp)
9d0094ec:	8fb00010 	lw	s0,16(sp)
9d0094f0:	03e00008 	jr	ra
9d0094f4:	27bd0018 	addiu	sp,sp,24
9d0094f8:	10a0fffb 	beqz	a1,9d0094e8 <fflush+0x34>
9d0094fc:	00001021 	move	v0,zero
9d009500:	8e060004 	lw	a2,4(s0)
9d009504:	10c0fff9 	beqz	a2,9d0094ec <fflush+0x38>
9d009508:	8fbf0014 	lw	ra,20(sp)
9d00950c:	0f402552 	jal	9d009548 <.LFE0>
9d009510:	9604000e 	lhu	a0,14(s0)
9d009514:	8e030004 	lw	v1,4(s0)
9d009518:	10430004 	beq	v0,v1,9d00952c <fflush+0x78>
9d00951c:	9602000c 	lhu	v0,12(s0)
9d009520:	34420030 	ori	v0,v0,0x30
9d009524:	3042ffff 	andi	v0,v0,0xffff
9d009528:	a602000c 	sh	v0,12(s0)
9d00952c:	8e030008 	lw	v1,8(s0)
9d009530:	30420020 	andi	v0,v0,0x20
9d009534:	ae000004 	sw	zero,4(s0)
9d009538:	1040ffea 	beqz	v0,9d0094e4 <fflush+0x30>
9d00953c:	ae030000 	sw	v1,0(s0)
9d009540:	0b40253a 	j	9d0094e8 <fflush+0x34>
9d009544:	2402ffff 	li	v0,-1

Disassembly of section .text.write:

9d009548 <write>:
9d009548:	27bdffe0 	addiu	sp,sp,-32
9d00954c:	afbf001c 	sw	ra,28(sp)
9d009550:	10a00012 	beqz	a1,9d00959c <write+0x54>
9d009554:	afb00018 	sw	s0,24(sp)
9d009558:	10c00010 	beqz	a2,9d00959c <write+0x54>
9d00955c:	2c840003 	sltiu	a0,a0,3
9d009560:	14800006 	bnez	a0,9d00957c <write+0x34>
9d009564:	3c020000 	lui	v0,0x0
9d009568:	8fbf001c 	lw	ra,28(sp)
9d00956c:	00c01021 	move	v0,a2
9d009570:	8fb00018 	lw	s0,24(sp)
9d009574:	03e00008 	jr	ra
9d009578:	27bd0020 	addiu	sp,sp,32
9d00957c:	24420000 	addiu	v0,v0,0
9d009580:	1040000b 	beqz	v0,9d0095b0 <write+0x68>
9d009584:	00a02021 	move	a0,a1
9d009588:	00c02821 	move	a1,a2
9d00958c:	0c000000 	jal	90000000 <_bmxdkpba_address+0x8ffe0000>
9d009590:	afa60014 	sw	a2,20(sp)
9d009594:	0b40255a 	j	9d009568 <write+0x20>
9d009598:	8fa60014 	lw	a2,20(sp)
9d00959c:	8fbf001c 	lw	ra,28(sp)
9d0095a0:	00001021 	move	v0,zero
9d0095a4:	8fb00018 	lw	s0,24(sp)
9d0095a8:	03e00008 	jr	ra
9d0095ac:	27bd0020 	addiu	sp,sp,32
9d0095b0:	00a68021 	addu	s0,a1,a2
9d0095b4:	80a40000 	lb	a0,0(a1)
9d0095b8:	24a50001 	addiu	a1,a1,1
9d0095bc:	afa50010 	sw	a1,16(sp)
9d0095c0:	0f402433 	jal	9d0090cc <_mon_putc>
9d0095c4:	afa60014 	sw	a2,20(sp)
9d0095c8:	8fa50010 	lw	a1,16(sp)
9d0095cc:	14b0fff9 	bne	a1,s0,9d0095b4 <write+0x6c>
9d0095d0:	8fa60014 	lw	a2,20(sp)
9d0095d4:	0b40255b 	j	9d00956c <write+0x24>
9d0095d8:	8fbf001c 	lw	ra,28(sp)

Disassembly of section .text.libm:

9d0095dc <fpfrexp>:
9d0095dc:	000435c2 30c600ff 24c9ffff 2d2100fe     .5.....0...$..!-
9d0095ec:	1020000b 00000000                       .. .....

9d0095f4 <Blab1>:
9d0095f4:	24c6ff82 	addiu	a2,a2,-126
9d0095f8:	3c01807f 	lui	at,0x807f
9d0095fc:	3421ffff 	ori	at,at,0xffff
9d009600:	00812024 	and	a0,a0,at
9d009604:	3c013f00 	lui	at,0x3f00
9d009608:	00812025 	or	a0,a0,at

9d00960c <Bret>:
9d00960c:	aca60000 	sw	a2,0(a1)
9d009610:	00041025 	or	v0,zero,a0

9d009614 <B999>:
9d009614:	03e00008 	jr	ra
9d009618:	00000000 	nop

9d00961c <Bspec>:
9d00961c:	14c0000d 	bnez	a2,9d009654 <i8>
9d009620:	00000000 	nop
9d009624:	00844821 	addu	t1,a0,a0
9d009628:	1120fff8 	beqz	t1,9d00960c <Bret>
9d00962c:	00000000 	nop
9d009630:	00043a40 	sll	a3,a0,0x9
9d009634:	70e84020 	clz	t0,a3
9d009638:	00c83023 	subu	a2,a2,t0
9d00963c:	01073804 	sllv	a3,a3,t0
9d009640:	3c018000 	lui	at,0x8000
9d009644:	00812024 	and	a0,a0,at
9d009648:	00074a02 	srl	t1,a3,0x8
9d00964c:	1000ffe9 	b	9d0095f4 <Blab1>
9d009650:	00892025 	or	a0,a0,t1

9d009654 <i8>:
9d009654:	3c04ffc0 	lui	a0,0xffc0
9d009658:	1000ffec 	b	9d00960c <Bret>
9d00965c:	24060000 	li	a2,0
9d009660:	00000000 	nop

Disassembly of section .text.fptoli:

9d009664 <__fixsfsi>:
9d009664:	00042a00 3c018000 00a12825 00043dc2     .*.....<%(...=..
9d009674:	30e700ff 2406009e 00c73023 18c0000d     ...0...$#0......
9d009684:	00000000 28c10020 14200003 00000000     .... ..(.. .....
9d009694:	10000005 24020000                       .......$

9d00969c <i42>:
9d00969c:	04810002 	bgez	a0,9d0096a8 <i43>
9d0096a0:	00c52806 	srlv	a1,a1,a2
9d0096a4:	00052823 	negu	a1,a1

9d0096a8 <i43>:
9d0096a8:	00051025 	or	v0,zero,a1

9d0096ac <G999>:
9d0096ac:	03e00008 	jr	ra
9d0096b0:	00000000 	nop
9d0096b4:	00000000 	nop

9d0096b8 <Gspec>:
9d0096b8:	3c017f80 	lui	at,0x7f80
9d0096bc:	34210001 	ori	at,at,0x1
9d0096c0:	0081082b 	sltu	at,a0,at
9d0096c4:	14200003 	bnez	at,9d0096d4 <i44>
9d0096c8:	00000000 	nop
9d0096cc:	1000fff7 	b	9d0096ac <G999>
9d0096d0:	3c028000 	lui	v0,0x8000

9d0096d4 <i44>:
9d0096d4:	3c027fff 	lui	v0,0x7fff
9d0096d8:	1000fff4 	b	9d0096ac <G999>
9d0096dc:	3442ffff 	ori	v0,v0,0xffff
9d0096e0:	00000000 	nop

Disassembly of section .text.ungetc:

9d0096e4 <ungetc>:
9d0096e4:	2403ffff 	li	v1,-1
9d0096e8:	14830003 	bne	a0,v1,9d0096f8 <ungetc+0x14>
9d0096ec:	00801021 	move	v0,a0
9d0096f0:	03e00008 	jr	ra
9d0096f4:	00000000 	nop
9d0096f8:	94a3000c 	lhu	v1,12(a1)
9d0096fc:	24040001 	li	a0,1
9d009700:	30660201 	andi	a2,v1,0x201
9d009704:	50c40003 	beql	a2,a0,9d009714 <ungetc+0x30>
9d009708:	8ca70008 	lw	a3,8(a1)
9d00970c:	03e00008 	jr	ra
9d009710:	2402ffff 	li	v0,-1
9d009714:	50e0fff6 	beqzl	a3,9d0096f0 <ungetc+0xc>
9d009718:	2402ffff 	li	v0,-1
9d00971c:	8ca60004 	lw	a2,4(a1)
9d009720:	8ca40010 	lw	a0,16(a1)
9d009724:	50c4fff2 	beql	a2,a0,9d0096f0 <ungetc+0xc>
9d009728:	2402ffff 	li	v0,-1
9d00972c:	8ca40000 	lw	a0,0(a1)
9d009730:	10e40008 	beq	a3,a0,9d009754 <ungetc+0x70>
9d009734:	24c60001 	addiu	a2,a2,1
9d009738:	aca60004 	sw	a2,4(a1)
9d00973c:	2486ffff 	addiu	a2,a0,-1
9d009740:	30630040 	andi	v1,v1,0x40
9d009744:	1460ffea 	bnez	v1,9d0096f0 <ungetc+0xc>
9d009748:	aca60000 	sw	a2,0(a1)
9d00974c:	03e00008 	jr	ra
9d009750:	a082ffff 	sb	v0,-1(a0)
9d009754:	24840001 	addiu	a0,a0,1
9d009758:	0b4025cf 	j	9d00973c <ungetc+0x58>
9d00975c:	aca40000 	sw	a0,0(a1)

Disassembly of section .text.fptoul:

9d009760 <__fixunssfsi>:
9d009760:	00042a00 3c018000 00a12825 00043dc2     .*.....<%(...=..
9d009770:	30e700ff 2406009e 00c73023 04c0000d     ...0...$#0......
9d009780:	00000000 28c10020 14200003 00000000     .... ..(.. .....
9d009790:	10000005 24020000                       .......$

9d009798 <i45>:
9d009798:	04810002 	bgez	a0,9d0097a4 <i46>
9d00979c:	00c52806 	srlv	a1,a1,a2
9d0097a0:	00052823 	negu	a1,a1

9d0097a4 <i46>:
9d0097a4:	00051025 	or	v0,zero,a1

9d0097a8 <I999>:
9d0097a8:	03e00008 	jr	ra
9d0097ac:	00000000 	nop
9d0097b0:	00000000 	nop

9d0097b4 <Ispec>:
9d0097b4:	3c017f80 	lui	at,0x7f80
9d0097b8:	34210001 	ori	at,at,0x1
9d0097bc:	0081082b 	sltu	at,a0,at
9d0097c0:	14200003 	bnez	at,9d0097d0 <i47>
9d0097c4:	00000000 	nop
9d0097c8:	1000fff7 	b	9d0097a8 <I999>
9d0097cc:	3c028000 	lui	v0,0x8000

9d0097d0 <i47>:
9d0097d0:	1000fff5 	b	9d0097a8 <I999>
9d0097d4:	2402ffff 	li	v0,-1
9d0097d8:	00000000 	nop

Disassembly of section .text.litodp:

9d0097dc <__floatsidf>:
9d0097dc:	24050000 00054825 00053825 00043025     ...$%H..%8..%0..
9d0097ec:	10c0000c 00000000 04c10006 00000000     ................
9d0097fc:	3c098000 0005502b 00052823 00063023     ...<+P..#(..#0..
9d00980c:	00ca3023                                #0..

9d009810 <i40>:
9d009810:	2407041e 	li	a3,1054
9d009814:	70c84020 	clz	t0,a2
9d009818:	00e83823 	subu	a3,a3,t0
9d00981c:	01063004 	sllv	a2,a2,t0

9d009820 <i39>:
9d009820:	000542c2 	srl	t0,a1,0xb
9d009824:	00065540 	sll	t2,a2,0x15
9d009828:	010a4025 	or	t0,t0,t2
9d00982c:	00065040 	sll	t2,a2,0x1
9d009830:	000a5302 	srl	t2,t2,0xc
9d009834:	012a4825 	or	t1,t1,t2
9d009838:	00075500 	sll	t2,a3,0x14
9d00983c:	012a4825 	or	t1,t1,t2
9d009840:	00081025 	or	v0,zero,t0
9d009844:	00091825 	or	v1,zero,t1

9d009848 <E999>:
9d009848:	03e00008 	jr	ra
9d00984c:	00000000 	nop
9d009850:	00000000 	nop

Disassembly of section .text._sprintf_cdfFnopuxX:

9d009854 <_sprintf_cdfFnopuxX>:
9d009854:	27bdffd0 	addiu	sp,sp,-48
9d009858:	27a20038 	addiu	v0,sp,56
9d00985c:	afa60038 	sw	a2,56(sp)
9d009860:	afa20010 	sw	v0,16(sp)
9d009864:	00403021 	move	a2,v0
9d009868:	24027fff 	li	v0,32767
9d00986c:	afb00028 	sw	s0,40(sp)
9d009870:	afa20024 	sw	v0,36(sp)
9d009874:	00808021 	move	s0,a0
9d009878:	240200c2 	li	v0,194
9d00987c:	27a40014 	addiu	a0,sp,20
9d009880:	afbf002c 	sw	ra,44(sp)
9d009884:	afb00014 	sw	s0,20(sp)
9d009888:	afb0001c 	sw	s0,28(sp)
9d00988c:	afa7003c 	sw	a3,60(sp)
9d009890:	afa00018 	sw	zero,24(sp)
9d009894:	0f400780 	jal	9d001e00 <_vfprintf_cdfFnopuxX>
9d009898:	a7a20020 	sh	v0,32(sp)
9d00989c:	8fa20014 	lw	v0,20(sp)
9d0098a0:	a0400000 	sb	zero,0(v0)
9d0098a4:	8fa20014 	lw	v0,20(sp)
9d0098a8:	8fbf002c 	lw	ra,44(sp)
9d0098ac:	00501023 	subu	v0,v0,s0
9d0098b0:	8fb00028 	lw	s0,40(sp)
9d0098b4:	03e00008 	jr	ra
9d0098b8:	27bd0030 	addiu	sp,sp,48

Disassembly of section .rodata:

9d0098bc <_powers_f>:
9d0098bc:	3f800000 41200000 42c80000 447a0000     ...?.. A...B..zD
9d0098cc:	461c4000 47c35000 49742400 4b189680     .@.F.P.G.$tI...K
9d0098dc:	4cbebc20 4e6e6b28 501502f9 60ad78ec      ..L(knN...P.x.`
9d0098ec:	7149f2ca                                ..Iq

9d0098f0 <_npowers_f>:
9d0098f0:	3f800000 3dcccccd 3c23d70a 3a83126f     ...?...=..#<o..:
9d009900:	38d1b717 3727c5ac 358637bd 33d6bf95     ...8..'7.7.5...3
9d009910:	322bcc77 3089705f 2edbe6ff 1e3ce508     w.+2_p.0......<.
9d009920:	0da24260                                `B..

Disassembly of section .text.sitofp:

9d009924 <__floatsisf>:
9d009924:	3c018000 10800012 00813024 04810002     ...<....$0......
9d009934:	00000000 00042023                       ....# ..

9d00993c <i40>:
9d00993c:	2405009e 	li	a1,158
9d009940:	70873820 	clz	a3,a0
9d009944:	00a72823 	subu	a1,a1,a3
9d009948:	00e42004 	sllv	a0,a0,a3
9d00994c:	24840080 	addiu	a0,a0,128
9d009950:	2c880080 	sltiu	t0,a0,128
9d009954:	00a82821 	addu	a1,a1,t0
9d009958:	00044203 	sra	t0,a0,0x8
9d00995c:	31080001 	andi	t0,t0,0x1
9d009960:	00882023 	subu	a0,a0,t0
9d009964:	00042040 	sll	a0,a0,0x1
9d009968:	00042242 	srl	a0,a0,0x9
9d00996c:	000545c0 	sll	t0,a1,0x17
9d009970:	00882025 	or	a0,a0,t0

9d009974 <i39>:
9d009974:	00861025 	or	v0,a0,a2

9d009978 <E999>:
9d009978:	03e00008 	jr	ra
9d00997c:	00000000 	nop
9d009980:	00000000 	nop

Disassembly of section .text.wspace:

9d009984 <.text.wspace>:
9d009984:	27bdffe0 	addiu	sp,sp,-32
9d009988:	afb00014 	sw	s0,20(sp)
9d00998c:	3c109d01 	lui	s0,0x9d01
9d009990:	afb10018 	sw	s1,24(sp)
9d009994:	afbf001c 	sw	ra,28(sp)
9d009998:	3c11a000 	lui	s1,0xa000
9d00999c:	26108b24 	addiu	s0,s0,-29916
9d0099a0:	0f402287 	jal	9d008a1c <.LFE5>
9d0099a4:	8e247e84 	lw	a0,32388(s1)
9d0099a8:	02021821 	addu	v1,s0,v0
9d0099ac:	80630001 	lb	v1,1(v1)
9d0099b0:	30630088 	andi	v1,v1,0x88
9d0099b4:	1460fffa 	bnez	v1,9d0099a0 <E999+0x28>
9d0099b8:	2403ffff 	li	v1,-1
9d0099bc:	10430004 	beq	v0,v1,9d0099d0 <E999+0x58>
9d0099c0:	3c03a000 	lui	v1,0xa000
9d0099c4:	8c657e84 	lw	a1,32388(v1)
9d0099c8:	0f4025b9 	jal	9d0096e4 <ungetc>
9d0099cc:	00402021 	move	a0,v0
9d0099d0:	8fbf001c 	lw	ra,28(sp)
9d0099d4:	8fb10018 	lw	s1,24(sp)
9d0099d8:	8fb00014 	lw	s0,20(sp)
9d0099dc:	03e00008 	jr	ra
9d0099e0:	27bd0020 	addiu	sp,sp,32
9d0099e4:	27bdffe0 	addiu	sp,sp,-32
9d0099e8:	afb00014 	sw	s0,20(sp)
9d0099ec:	3c109d01 	lui	s0,0x9d01
9d0099f0:	afb10018 	sw	s1,24(sp)
9d0099f4:	afbf001c 	sw	ra,28(sp)
9d0099f8:	3c11a000 	lui	s1,0xa000
9d0099fc:	26108b24 	addiu	s0,s0,-29916
9d009a00:	0f402287 	jal	9d008a1c <.LFE5>
9d009a04:	8e247e88 	lw	a0,32392(s1)
9d009a08:	02021821 	addu	v1,s0,v0
9d009a0c:	80630001 	lb	v1,1(v1)
9d009a10:	30630088 	andi	v1,v1,0x88
9d009a14:	1460fffa 	bnez	v1,9d009a00 <E999+0x88>
9d009a18:	2403ffff 	li	v1,-1
9d009a1c:	10430004 	beq	v0,v1,9d009a30 <E999+0xb8>
9d009a20:	3c03a000 	lui	v1,0xa000
9d009a24:	8c657e88 	lw	a1,32392(v1)
9d009a28:	0f4025b9 	jal	9d0096e4 <ungetc>
9d009a2c:	00402021 	move	a0,v0
9d009a30:	8fbf001c 	lw	ra,28(sp)
9d009a34:	8fb10018 	lw	s1,24(sp)
9d009a38:	8fb00014 	lw	s0,20(sp)
9d009a3c:	03e00008 	jr	ra
9d009a40:	27bd0020 	addiu	sp,sp,32

Disassembly of section .text._sscanf_cdfFnopuxX:

9d009a44 <_sscanf_cdfFnopuxX>:
9d009a44:	27bdffc8 	addiu	sp,sp,-56
9d009a48:	27a30040 	addiu	v1,sp,64
9d009a4c:	afbf0034 	sw	ra,52(sp)
9d009a50:	afa60040 	sw	a2,64(sp)
9d009a54:	afa70044 	sw	a3,68(sp)
9d009a58:	afa30010 	sw	v1,16(sp)
9d009a5c:	afa40014 	sw	a0,20(sp)
9d009a60:	afa4001c 	sw	a0,28(sp)
9d009a64:	0f40276e 	jal	9d009db8 <.LFE0>
9d009a68:	afa50028 	sw	a1,40(sp)
9d009a6c:	8fa60010 	lw	a2,16(sp)
9d009a70:	8fa50028 	lw	a1,40(sp)
9d009a74:	afa20018 	sw	v0,24(sp)
9d009a78:	afa20024 	sw	v0,36(sp)
9d009a7c:	27a40014 	addiu	a0,sp,20
9d009a80:	240200c1 	li	v0,193
9d009a84:	0f400c63 	jal	9d00318c <.LFE2>
9d009a88:	a7a20020 	sh	v0,32(sp)
9d009a8c:	8fbf0034 	lw	ra,52(sp)
9d009a90:	03e00008 	jr	ra
9d009a94:	27bd0038 	addiu	sp,sp,56

Disassembly of section .text.main_entry:

9d009a98 <_main_entry>:
9d009a98:	3c040000 	lui	a0,0x0
9d009a9c:	27bdffe8 	addiu	sp,sp,-24
9d009aa0:	24840000 	addiu	a0,a0,0
9d009aa4:	10800003 	beqz	a0,9d009ab4 <_main_entry+0x1c>
9d009aa8:	afbf0014 	sw	ra,20(sp)
9d009aac:	0080f809 	jalr	a0
9d009ab0:	00000000 	nop
9d009ab4:	30840000 	andi	a0,a0,0x0
9d009ab8:	30a50000 	andi	a1,a1,0x0
9d009abc:	0f4015d2 	jal	9d005748 <main>
9d009ac0:	00000000 	nop

9d009ac4 <__crt0_exit>:
9d009ac4:	3c020000 24420000 10400003 00000000     ...<..B$..@.....
9d009ad4:	0040f809 00000000 1000fff9 00000000     ..@.............

Disassembly of section .text:

9d009ae4 <__floatunsisf>:
9d009ae4:	27bdffe8 	addiu	sp,sp,-24
9d009ae8:	afbf0014 	sw	ra,20(sp)
9d009aec:	04800006 	bltz	a0,9d009b08 <__floatunsisf+0x24>
9d009af0:	00801021 	move	v0,a0
9d009af4:	0f402649 	jal	9d009924 <__floatsisf>
9d009af8:	00000000 	nop
9d009afc:	8fbf0014 	lw	ra,20(sp)
9d009b00:	03e00008 	jr	ra
9d009b04:	27bd0018 	addiu	sp,sp,24
9d009b08:	30420001 	andi	v0,v0,0x1
9d009b0c:	00042042 	srl	a0,a0,0x1
9d009b10:	0f402649 	jal	9d009924 <__floatsisf>
9d009b14:	00822025 	or	a0,a0,v0
9d009b18:	00402021 	move	a0,v0
9d009b1c:	0f401d21 	jal	9d007484 <__addsf3>
9d009b20:	00402821 	move	a1,v0
9d009b24:	8fbf0014 	lw	ra,20(sp)
9d009b28:	03e00008 	jr	ra
9d009b2c:	27bd0018 	addiu	sp,sp,24

Disassembly of section .text._bootstrap_exception_handler:

9d009b30 <_bootstrap_exception_handler>:
9d009b30:	3c020000 	lui	v0,0x0
9d009b34:	27bdffe8 	addiu	sp,sp,-24
9d009b38:	24420000 	addiu	v0,v0,0
9d009b3c:	10400006 	beqz	v0,9d009b58 <_bootstrap_exception_handler+0x28>
9d009b40:	afbf0014 	sw	ra,20(sp)
9d009b44:	3c020000 	lui	v0,0x0
9d009b48:	24420000 	addiu	v0,v0,0
9d009b4c:	10400003 	beqz	v0,9d009b5c <_bootstrap_exception_handler+0x2c>
9d009b50:	3c029d01 	lui	v0,0x9d01
9d009b54:	7000003f 	sdbbp
9d009b58:	3c029d01 	lui	v0,0x9d01
9d009b5c:	24429c08 	addiu	v0,v0,-25592
9d009b60:	10400003 	beqz	v0,9d009b70 <_bootstrap_exception_handler+0x40>
9d009b64:	00000000 	nop
9d009b68:	0040f809 	jalr	v0
9d009b6c:	00000000 	nop
9d009b70:	0b4026dc 	j	9d009b70 <_bootstrap_exception_handler+0x40>
9d009b74:	00000000 	nop

Disassembly of section .text._general_exception_handler:

9d009b78 <_general_exception_handler>:
9d009b78:	3c020000 	lui	v0,0x0
9d009b7c:	27bdffe8 	addiu	sp,sp,-24
9d009b80:	24420000 	addiu	v0,v0,0
9d009b84:	10400006 	beqz	v0,9d009ba0 <_general_exception_handler+0x28>
9d009b88:	afbf0014 	sw	ra,20(sp)
9d009b8c:	3c020000 	lui	v0,0x0
9d009b90:	24420000 	addiu	v0,v0,0
9d009b94:	10400003 	beqz	v0,9d009ba4 <_general_exception_handler+0x2c>
9d009b98:	3c029d01 	lui	v0,0x9d01
9d009b9c:	7000003f 	sdbbp
9d009ba0:	3c029d01 	lui	v0,0x9d01
9d009ba4:	24429c08 	addiu	v0,v0,-25592
9d009ba8:	10400003 	beqz	v0,9d009bb8 <_general_exception_handler+0x40>
9d009bac:	00000000 	nop
9d009bb0:	0040f809 	jalr	v0
9d009bb4:	00000000 	nop
9d009bb8:	0b4026ee 	j	9d009bb8 <_general_exception_handler+0x40>
9d009bbc:	00000000 	nop

Disassembly of section .rodata:

9d009bc0 <f5pow>:
9d009bc0:	00000000 40140000 00000000 40390000     .......@......9@
9d009bd0:	00000000 40838800 00000000 4117d784     .......@.......A
9d009be0:	37e08000 4241c379 b5056e17 4493b8b5     ...7y.AB.n.....D
9d009bf0:	e93ff9f5 49384f03 f9301d32 52827748     ..?..O8I2.0.Hw.R
9d009c00:	7f73bf3c 65154fdd                       <.s..O.e

Disassembly of section .text:

9d009c08 <__pic32_software_reset>:
9d009c08:	41606000 	di
9d009c0c:	000000c0 	ehb
9d009c10:	3c03aa99 	lui	v1,0xaa99
9d009c14:	3c02bf81 	lui	v0,0xbf81
9d009c18:	24636655 	addiu	v1,v1,26197
9d009c1c:	ac40f230 	sw	zero,-3536(v0)
9d009c20:	ac43f230 	sw	v1,-3536(v0)
9d009c24:	3c035566 	lui	v1,0x5566
9d009c28:	346399aa 	ori	v1,v1,0x99aa
9d009c2c:	ac43f230 	sw	v1,-3536(v0)
9d009c30:	3c02bf81 	lui	v0,0xbf81
9d009c34:	24030001 	li	v1,1
9d009c38:	ac43f618 	sw	v1,-2536(v0)
9d009c3c:	3c02bf81 	lui	v0,0xbf81
9d009c40:	8c42f610 	lw	v0,-2544(v0)
9d009c44:	0b402704 	j	9d009c10 <__pic32_software_reset+0x8>
9d009c48:	00000000 	nop

9d009c4c <__lshrdi3>:
9d009c4c:	10c0000a 	beqz	a2,9d009c78 <__lshrdi3+0x2c>
9d009c50:	00801021 	move	v0,a0
9d009c54:	24030020 	li	v1,32
9d009c58:	00661823 	subu	v1,v1,a2
9d009c5c:	58600008 	blezl	v1,9d009c80 <__lshrdi3+0x34>
9d009c60:	00031023 	negu	v0,v1
9d009c64:	00651804 	sllv	v1,a1,v1
9d009c68:	00c41006 	srlv	v0,a0,a2
9d009c6c:	00c53006 	srlv	a2,a1,a2
9d009c70:	00621025 	or	v0,v1,v0
9d009c74:	00c02821 	move	a1,a2
9d009c78:	03e00008 	jr	ra
9d009c7c:	00a01821 	move	v1,a1
9d009c80:	00003021 	move	a2,zero
9d009c84:	00451006 	srlv	v0,a1,v0
9d009c88:	0b40271e 	j	9d009c78 <__lshrdi3+0x2c>
9d009c8c:	00c02821 	move	a1,a2

9d009c90 <__ashldi3>:
9d009c90:	10c0000a 	beqz	a2,9d009cbc <__ashldi3+0x2c>
9d009c94:	00801021 	move	v0,a0
9d009c98:	24030020 	li	v1,32
9d009c9c:	00661823 	subu	v1,v1,a2
9d009ca0:	58600008 	blezl	v1,9d009cc4 <__ashldi3+0x34>
9d009ca4:	00032823 	negu	a1,v1
9d009ca8:	00c52804 	sllv	a1,a1,a2
9d009cac:	00641806 	srlv	v1,a0,v1
9d009cb0:	00c43004 	sllv	a2,a0,a2
9d009cb4:	00652825 	or	a1,v1,a1
9d009cb8:	00c01021 	move	v0,a2
9d009cbc:	03e00008 	jr	ra
9d009cc0:	00a01821 	move	v1,a1
9d009cc4:	00003021 	move	a2,zero
9d009cc8:	00a42804 	sllv	a1,a0,a1
9d009ccc:	0b40272f 	j	9d009cbc <__ashldi3+0x2c>
9d009cd0:	00c01021 	move	v0,a2

Disassembly of section .vector_default:

9d009cd4 <_DefaultInterrupt>:
9d009cd4:	3c020000 	lui	v0,0x0
9d009cd8:	24420000 	addiu	v0,v0,0
9d009cdc:	10400005 	beqz	v0,9d009cf4 <_DefaultInterrupt+0x20>
9d009ce0:	3c020000 	lui	v0,0x0
9d009ce4:	24420000 	addiu	v0,v0,0
9d009ce8:	10400003 	beqz	v0,9d009cf8 <_DefaultInterrupt+0x24>
9d009cec:	3c029d01 	lui	v0,0x9d01
9d009cf0:	7000003f 	sdbbp
9d009cf4:	3c029d01 	lui	v0,0x9d01
9d009cf8:	24429c08 	addiu	v0,v0,-25592
9d009cfc:	1040fffd 	beqz	v0,9d009cf4 <_DefaultInterrupt+0x20>
9d009d00:	00000000 	nop
9d009d04:	0040f809 	jalr	v0
9d009d08:	00000000 	nop

Disassembly of section .rodata:

9d009d0c <.rodata>:
9d009d0c:	0a0d6425 	j	98359094 <_bmxdkpba_address+0x98339094>
9d009d10:	00000000 	nop
9d009d14:	00006425 	0x6425
9d009d18:	25206625 	addiu	zero,t1,26149
9d009d1c:	00000066 	0x66
9d009d20:	25206625 	addiu	zero,t1,26149
9d009d24:	000a0d66 	0xa0d66
9d009d28:	25206625 	addiu	zero,t1,26149
9d009d2c:	66252066 	0x66252066
9d009d30:	00000000 	nop
9d009d34:	25206625 	addiu	zero,t1,26149
9d009d38:	66252066 	0x66252066
9d009d3c:	00000a0d 	break	0x0,0x28

Disassembly of section .text.tolower:

9d009d40 <tolower>:
9d009d40:	3c039d01 	lui	v1,0x9d01
9d009d44:	24638b24 	addiu	v1,v1,-29916
9d009d48:	00831821 	addu	v1,a0,v1
9d009d4c:	90630001 	lbu	v1,1(v1)
9d009d50:	30630001 	andi	v1,v1,0x1
9d009d54:	10600002 	beqz	v1,9d009d60 <tolower+0x20>
9d009d58:	00801021 	move	v0,a0
9d009d5c:	24820020 	addiu	v0,a0,32
9d009d60:	03e00008 	jr	ra
9d009d64:	00000000 	nop

Disassembly of section .text.toupper:

9d009d68 <toupper>:
9d009d68:	3c039d01 	lui	v1,0x9d01
9d009d6c:	24638b24 	addiu	v1,v1,-29916
9d009d70:	00831821 	addu	v1,a0,v1
9d009d74:	90630001 	lbu	v1,1(v1)
9d009d78:	30630002 	andi	v1,v1,0x2
9d009d7c:	10600002 	beqz	v1,9d009d88 <toupper+0x20>
9d009d80:	00801021 	move	v0,a0
9d009d84:	2482ffe0 	addiu	v0,a0,-32
9d009d88:	03e00008 	jr	ra
9d009d8c:	00000000 	nop

Disassembly of section .text.strtod:

9d009d90 <strtod>:
9d009d90:	27bdffe8 	addiu	sp,sp,-24
9d009d94:	afbf0014 	sw	ra,20(sp)
9d009d98:	0f401906 	jal	9d006418 <__strtod>
9d009d9c:	00000000 	nop
9d009da0:	00402021 	move	a0,v0
9d009da4:	0f40234b 	jal	9d008d2c <.LFE23>
9d009da8:	00602821 	move	a1,v1
9d009dac:	8fbf0014 	lw	ra,20(sp)
9d009db0:	03e00008 	jr	ra
9d009db4:	27bd0018 	addiu	sp,sp,24

Disassembly of section .text.strlen:

9d009db8 <strlen>:
9d009db8:	00801821 	move	v1,a0
9d009dbc:	80650000 	lb	a1,0(v1)
9d009dc0:	14a0fffe 	bnez	a1,9d009dbc <strlen+0x4>
9d009dc4:	24630001 	addiu	v1,v1,1
9d009dc8:	00041027 	nor	v0,zero,a0
9d009dcc:	03e00008 	jr	ra
9d009dd0:	00621021 	addu	v0,v1,v0

Disassembly of section .text._dstrtod:

9d009dd4 <_dstrtod>:
9d009dd4:	27bdffe8 	addiu	sp,sp,-24
9d009dd8:	afbf0014 	sw	ra,20(sp)
9d009ddc:	0f401906 	jal	9d006418 <__strtod>
9d009de0:	00000000 	nop
9d009de4:	8fbf0014 	lw	ra,20(sp)
9d009de8:	03e00008 	jr	ra
9d009dec:	27bd0018 	addiu	sp,sp,24

Disassembly of section .text.strtof:

9d009df0 <strtof>:
9d009df0:	27bdffe8 	addiu	sp,sp,-24
9d009df4:	afbf0014 	sw	ra,20(sp)
9d009df8:	0f401a04 	jal	9d006810 <.LFE23>
9d009dfc:	00000000 	nop
9d009e00:	8fbf0014 	lw	ra,20(sp)
9d009e04:	03e00008 	jr	ra
9d009e08:	27bd0018 	addiu	sp,sp,24

Disassembly of section .text.strtodf:

9d009e0c <strtodf>:
9d009e0c:	27bdffe8 	addiu	sp,sp,-24
9d009e10:	afbf0014 	sw	ra,20(sp)
9d009e14:	0f401a04 	jal	9d006810 <.LFE23>
9d009e18:	00000000 	nop
9d009e1c:	8fbf0014 	lw	ra,20(sp)
9d009e20:	03e00008 	jr	ra
9d009e24:	27bd0018 	addiu	sp,sp,24

Disassembly of section .text.negdf2:

9d009e28 <__negdf2>:
9d009e28:	3c018000 00a12826 00041025 00051825     ...<&(..%...%...

9d009e38 <M999>:
9d009e38:	03e00008 	jr	ra
9d009e3c:	00000000 	nop
9d009e40:	00000000 	nop

Disassembly of section .text:

9d009e44 <_nmi_handler>:
9d009e44:	401a6000 	mfc0	k0,c0_status
9d009e48:	3c1bffbf 	lui	k1,0xffbf
9d009e4c:	377bffff 	ori	k1,k1,0xffff
9d009e50:	035bd024 	and	k0,k0,k1
9d009e54:	409a6000 	mtc0	k0,c0_status
9d009e58:	42000018 	eret

Disassembly of section .text.isalnum:

9d009e5c <isalnum>:
9d009e5c:	3c029d01 	lui	v0,0x9d01
9d009e60:	24428b24 	addiu	v0,v0,-29916
9d009e64:	00441021 	addu	v0,v0,a0
9d009e68:	90420001 	lbu	v0,1(v0)
9d009e6c:	03e00008 	jr	ra
9d009e70:	30420007 	andi	v0,v0,0x7

Disassembly of section .text.isalpha:

9d009e74 <isalpha>:
9d009e74:	3c029d01 	lui	v0,0x9d01
9d009e78:	24428b24 	addiu	v0,v0,-29916
9d009e7c:	00441021 	addu	v0,v0,a0
9d009e80:	90420001 	lbu	v0,1(v0)
9d009e84:	03e00008 	jr	ra
9d009e88:	30420003 	andi	v0,v0,0x3

Disassembly of section .text.iscntrl:

9d009e8c <iscntrl>:
9d009e8c:	3c029d01 	lui	v0,0x9d01
9d009e90:	24428b24 	addiu	v0,v0,-29916
9d009e94:	00441021 	addu	v0,v0,a0
9d009e98:	90420001 	lbu	v0,1(v0)
9d009e9c:	03e00008 	jr	ra
9d009ea0:	30420020 	andi	v0,v0,0x20

Disassembly of section .text.isdigit:

9d009ea4 <isdigit>:
9d009ea4:	3c029d01 	lui	v0,0x9d01
9d009ea8:	24428b24 	addiu	v0,v0,-29916
9d009eac:	00441021 	addu	v0,v0,a0
9d009eb0:	90420001 	lbu	v0,1(v0)
9d009eb4:	03e00008 	jr	ra
9d009eb8:	30420004 	andi	v0,v0,0x4

Disassembly of section .text.isgraph:

9d009ebc <isgraph>:
9d009ebc:	3c029d01 	lui	v0,0x9d01
9d009ec0:	24428b24 	addiu	v0,v0,-29916
9d009ec4:	00441021 	addu	v0,v0,a0
9d009ec8:	90420001 	lbu	v0,1(v0)
9d009ecc:	03e00008 	jr	ra
9d009ed0:	30420017 	andi	v0,v0,0x17

Disassembly of section .text.islower:

9d009ed4 <islower>:
9d009ed4:	3c029d01 	lui	v0,0x9d01
9d009ed8:	24428b24 	addiu	v0,v0,-29916
9d009edc:	00441021 	addu	v0,v0,a0
9d009ee0:	90420001 	lbu	v0,1(v0)
9d009ee4:	03e00008 	jr	ra
9d009ee8:	30420002 	andi	v0,v0,0x2

Disassembly of section .text.isprint:

9d009eec <isprint>:
9d009eec:	3c029d01 	lui	v0,0x9d01
9d009ef0:	24428b24 	addiu	v0,v0,-29916
9d009ef4:	00441021 	addu	v0,v0,a0
9d009ef8:	80420001 	lb	v0,1(v0)
9d009efc:	03e00008 	jr	ra
9d009f00:	30420097 	andi	v0,v0,0x97

Disassembly of section .text.ispunct:

9d009f04 <ispunct>:
9d009f04:	3c029d01 	lui	v0,0x9d01
9d009f08:	24428b24 	addiu	v0,v0,-29916
9d009f0c:	00441021 	addu	v0,v0,a0
9d009f10:	90420001 	lbu	v0,1(v0)
9d009f14:	03e00008 	jr	ra
9d009f18:	30420010 	andi	v0,v0,0x10

Disassembly of section .text.isspace:

9d009f1c <isspace>:
9d009f1c:	3c029d01 	lui	v0,0x9d01
9d009f20:	24428b24 	addiu	v0,v0,-29916
9d009f24:	00441021 	addu	v0,v0,a0
9d009f28:	80420001 	lb	v0,1(v0)
9d009f2c:	03e00008 	jr	ra
9d009f30:	30420088 	andi	v0,v0,0x88

Disassembly of section .text.isupper:

9d009f34 <isupper>:
9d009f34:	3c029d01 	lui	v0,0x9d01
9d009f38:	24428b24 	addiu	v0,v0,-29916
9d009f3c:	00441021 	addu	v0,v0,a0
9d009f40:	90420001 	lbu	v0,1(v0)
9d009f44:	03e00008 	jr	ra
9d009f48:	30420001 	andi	v0,v0,0x1

Disassembly of section .text.isxdigit:

9d009f4c <isxdigit>:
9d009f4c:	3c029d01 	lui	v0,0x9d01
9d009f50:	24428b24 	addiu	v0,v0,-29916
9d009f54:	00441021 	addu	v0,v0,a0
9d009f58:	90420001 	lbu	v0,1(v0)
9d009f5c:	03e00008 	jr	ra
9d009f60:	30420044 	andi	v0,v0,0x44

Disassembly of section .rodata:

9d009f64 <.rodata>:
9d009f64:	40a00000 	0x40a00000
9d009f68:	41c80000 	wrpgpr	zero,t0
9d009f6c:	441c4000 	mfc1	gp,$f8
9d009f70:	48bebc20 	0x48bebc20
9d009f74:	520e1bca 	beql	s0,t6,9d010ea0 <.LFE16+0x6eb8>
9d009f78:	649dc5ae 	0x649dc5ae
9d009f7c:	0a0d6425 	j	98359094 <_bmxdkpba_address+0x98339094>
9d009f80:	00000000 	nop
9d009f84:	25206425 	addiu	zero,t1,25637
9d009f88:	66252064 	0x66252064
9d009f8c:	00000a0d 	break	0x0,0x28

Disassembly of section .text.negsf2:

9d009f90 <__negsf2>:
9d009f90:	3c018000 00811026                       ...<&...

9d009f98 <L999>:
9d009f98:	03e00008 	jr	ra
9d009f9c:	00000000 	nop
9d009fa0:	00000000 	nop

Disassembly of section .rodata:

9d009fa4 <.rodata>:
9d009fa4:	00006425 	0x6425
9d009fa8:	43fa0000 	c0	0x1fa0000
9d009fac:	c3fa0000 	ll	k0,0(ra)
9d009fb0:	42c80000 	c0	0xc80000
9d009fb4:	3f800000 	0x3f800000

Disassembly of section .text._on_reset:

9d009fb8 <_on_reset>:
9d009fb8:	03e00008 	jr	ra
9d009fbc:	00000000 	nop

Disassembly of section .text._on_bootstrap:

9d009fc0 <_on_bootstrap>:
9d009fc0:	03e00008 	jr	ra
9d009fc4:	00000000 	nop

Disassembly of section .text.isascii:

9d009fc8 <isascii>:
9d009fc8:	03e00008 	jr	ra
9d009fcc:	2c820080 	sltiu	v0,a0,128

Disassembly of section .text.toascii:

9d009fd0 <toascii>:
9d009fd0:	03e00008 	jr	ra
9d009fd4:	3082007f 	andi	v0,a0,0x7f

Disassembly of section .text._tolower:

9d009fd8 <_tolower>:
9d009fd8:	03e00008 	jr	ra
9d009fdc:	24820020 	addiu	v0,a0,32

Disassembly of section .text._toupper:

9d009fe0 <_toupper>:
9d009fe0:	03e00008 	jr	ra
9d009fe4:	2482ffe0 	addiu	v0,a0,-32

Disassembly of section .rodata:

9d009fe8 <.rodata>:
9d009fe8:	4f800000 	lwxc1	$f0,zero(gp)
9d009fec:	4f000000 	lwxc1	$f0,zero(t8)
9d009ff0:	402c28f6 	0x402c28f6
9d009ff4:	447a8000 	mfhc1	k0,$f16
